Certificate:
    Data:
        Version: 3 (0x2)
        Serial Number: 4098 (0x1002)
    Signature Algorithm: sha256WithRSAEncryption
        Issuer: C=DE, ST=Bavaria, L=Munich, O=BMW, OU=Car IT, CN=Root CA 1
        Validity
            Not Before: Mar 27 13:25:56 2017 GMT
            Not After : Aug 12 13:25:56 2044 GMT
        Subject: C=DE, ST=Bavaria, O=BMW, OU=Car IT, CN=Certificate directly under root
        Subject Public Key Info:
            Public Key Algorithm: rsaEncryption
                Public-Key: (2048 bit)
                Modulus:
                    00:c0:1a:0a:24:09:28:99:82:5f:44:25:c9:e2:69:
                    2a:96:a2:f8:00:9a:c6:ee:68:0c:b2:10:7b:1b:3e:
                    d3:4a:42:cf:e3:cc:95:6e:9a:4c:13:88:a7:b8:3e:
                    be:50:99:33:ce:62:5c:04:37:ca:20:a3:5c:75:52:
                    88:e3:ee:9b:d5:c1:3f:d7:d3:2e:1d:b3:28:f9:16:
                    04:ca:2a:d2:bd:b9:b7:71:7a:1c:eb:e7:88:ae:a3:
                    a4:f9:1b:b9:9a:33:2d:e3:30:3d:47:ac:4e:00:95:
                    eb:f2:c6:ee:17:b4:fa:ad:d3:19:8f:ca:f7:dc:27:
                    56:08:5a:ea:fa:e0:bf:bc:2c:f1:0c:34:4f:03:18:
                    2d:1b:51:b7:88:40:46:40:b8:8a:f9:4e:f0:e9:8e:
                    97:0e:64:2d:05:29:86:22:b4:d3:b0:37:dc:37:59:
                    9b:ff:02:8b:67:b7:cd:d6:a3:91:80:d6:b9:6d:47:
                    4c:8f:0e:4d:5d:e3:5b:77:bc:a0:7d:f6:f9:c8:42:
                    76:cc:d3:3b:ee:a4:df:c4:ec:91:8d:df:01:d5:db:
                    10:09:5c:5e:dc:18:06:53:f0:28:65:6d:ec:96:57:
                    be:a4:2a:51:3e:21:35:97:84:c9:21:45:bf:21:4d:
                    8f:c1:ac:16:e8:30:ad:af:f7:3a:be:47:db:31:c6:
                    79:0f
                Exponent: 65537 (0x10001)
        X509v3 extensions:
            X509v3 Basic Constraints: 
                CA:FALSE
            Netscape Cert Type: 
                SSL Client
            Netscape Comment: 
                OpenSSL Generated Client Certificate
            X509v3 Subject Key Identifier: 
                FF:02:4C:3D:0C:BF:AA:E6:E0:E0:2F:56:F1:6B:EE:87:64:0C:B6:60
            X509v3 Authority Key Identifier: 
                keyid:D3:14:A3:86:B3:6F:70:70:94:1A:26:D6:20:38:D0:11:CF:A7:8A:B2

            X509v3 Key Usage: critical
                Digital Signature, Non Repudiation, Key Encipherment
            X509v3 Extended Key Usage: 
                TLS Web Client Authentication
    Signature Algorithm: sha256WithRSAEncryption
         60:29:b1:2e:5c:4d:0b:19:47:94:98:7e:53:f7:07:ed:f9:c3:
         2d:4b:f4:fd:23:63:c5:bb:2d:42:e9:33:be:88:53:b9:08:e1:
         68:d9:07:0a:dd:51:dc:b8:c1:45:ff:0b:8c:bc:1f:5d:c1:e0:
         d8:15:3f:b2:cb:eb:d3:b6:31:f8:49:d9:a6:08:94:3f:80:20:
         d5:50:26:d8:30:74:e6:3a:eb:d3:cf:48:52:fe:6c:76:c3:c6:
         d9:0c:e6:40:7f:7f:ea:e8:b3:d2:64:6b:05:dc:27:2e:63:85:
         53:fc:4f:81:31:fd:ff:f1:5d:bd:13:b0:0b:77:59:a1:97:cf:
         71:3c:ef:da:41:c1:07:b1:93:d9:87:1d:40:0b:7d:1b:d6:ed:
         75:e6:61:46:96:50:e5:2d:c0:8a:6b:57:0c:eb:01:ac:f7:42:
         3d:1c:d8:6b:8e:90:dd:af:33:63:44:df:dd:2c:aa:7a:7a:86:
         bc:83:5b:40:2f:c8:85:62:85:dd:b9:e4:31:b3:72:ae:2c:35:
         f4:da:aa:33:da:8e:55:d7:57:b7:1a:49:5e:c4:a2:14:ea:3f:
         f3:76:40:7b:fa:1d:7f:0c:47:14:99:7c:cb:bd:49:85:08:13:
         d3:a7:03:27:11:de:e3:56:bb:a4:99:47:20:67:97:c3:b8:07:
         8e:42:5c:24:af:12:a6:4d:57:3b:4b:21:9b:41:a2:2a:78:51:
         7a:2b:18:33:83:8a:ca:de:94:27:ce:27:8f:0b:ed:26:e6:2e:
         3f:d9:f1:f1:85:04:e4:63:f1:f2:a2:75:6f:5d:d7:8a:7d:eb:
         6e:ac:99:d0:f3:70:f1:a9:4c:e2:13:70:32:e1:64:01:ad:89:
         59:6a:e3:0a:77:23:08:69:a6:e9:9f:7f:ca:f1:bf:2d:f1:f6:
         50:f7:36:bf:98:80:55:d2:87:c5:6e:13:29:84:52:2f:3f:8a:
         9f:34:ef:f2:bc:fc:c0:0d:dc:13:31:92:3e:b1:c3:ea:ee:c0:
         0e:1c:9d:77:8d:52:d1:5b:8b:52:04:50:17:a2:7c:56:d5:f7:
         40:5b:68:f1:fa:ad:14:29:96:ff:71:30:fe:90:82:1d:a1:85:
         86:e3:fd:d1:d4:28:7a:b6:26:a5:2e:9c:6d:8e:cd:a1:b2:61:
         8b:67:8a:32:4d:17:e0:9a:b5:3f:98:c1:60:0f:f4:fb:9b:24:
         9c:bd:fd:b0:80:87:e0:10:ff:32:19:1d:30:c2:50:1c:22:81:
         f6:5c:73:04:1c:00:0f:f4:ea:1a:92:f1:4c:0e:32:a3:bd:9f:
         fb:7a:ca:a6:84:cd:7c:e2:c5:c8:8c:8a:4b:5d:38:5d:30:3a:
         56:91:53:c1:cd:d5:2e:63
-----BEGIN CERTIFICATE-----
MIIFAzCCAuugAwIBAgICEAIwDQYJKoZIhvcNAQELBQAwYzELMAkGA1UEBhMCREUx
EDAOBgNVBAgMB0JhdmFyaWExDzANBgNVBAcMBk11bmljaDEMMAoGA1UECgwDQk1X
MQ8wDQYDVQQLDAZDYXIgSVQxEjAQBgNVBAMMCVJvb3QgQ0EgMTAeFw0xNzAzMjcx
MzI1NTZaFw00NDA4MTIxMzI1NTZaMGgxCzAJBgNVBAYTAkRFMRAwDgYDVQQIDAdC
YXZhcmlhMQwwCgYDVQQKDANCTVcxDzANBgNVBAsMBkNhciBJVDEoMCYGA1UEAwwf
Q2VydGlmaWNhdGUgZGlyZWN0bHkgdW5kZXIgcm9vdDCCASIwDQYJKoZIhvcNAQEB
BQADggEPADCCAQoCggEBAMAaCiQJKJmCX0QlyeJpKpai+ACaxu5oDLIQexs+00pC
z+PMlW6aTBOIp7g+vlCZM85iXAQ3yiCjXHVSiOPum9XBP9fTLh2zKPkWBMoq0r25
t3F6HOvniK6jpPkbuZozLeMwPUesTgCV6/LG7he0+q3TGY/K99wnVgha6vrgv7ws
8Qw0TwMYLRtRt4hARkC4ivlO8OmOlw5kLQUphiK007A33DdZm/8Ci2e3zdajkYDW
uW1HTI8OTV3jW3e8oH32+chCdszTO+6k38TskY3fAdXbEAlcXtwYBlPwKGVt7JZX
vqQqUT4hNZeEySFFvyFNj8GsFugwra/3Or5H2zHGeQ8CAwEAAaOBuzCBuDAJBgNV
HRMEAjAAMBEGCWCGSAGG+EIBAQQEAwIHgDAzBglghkgBhvhCAQ0EJhYkT3BlblNT
TCBHZW5lcmF0ZWQgQ2xpZW50IENlcnRpZmljYXRlMB0GA1UdDgQWBBT/Akw9DL+q
5uDgL1bxa+6HZAy2YDAfBgNVHSMEGDAWgBTTFKOGs29wcJQaJtYgONARz6eKsjAO
BgNVHQ8BAf8EBAMCBeAwEwYDVR0lBAwwCgYIKwYBBQUHAwIwDQYJKoZIhvcNAQEL
BQADggIBAGApsS5cTQsZR5SYflP3B+35wy1L9P0jY8W7LULpM76IU7kI4WjZBwrd
Udy4wUX/C4y8H13B4NgVP7LL69O2MfhJ2aYIlD+AINVQJtgwdOY669PPSFL+bHbD
xtkM5kB/f+ros9JkawXcJy5jhVP8T4Ex/f/xXb0TsAt3WaGXz3E879pBwQexk9mH
HUALfRvW7XXmYUaWUOUtwIprVwzrAaz3Qj0c2GuOkN2vM2NE390sqnp6hryDW0Av
yIVihd255DGzcq4sNfTaqjPajlXXV7caSV7EohTqP/N2QHv6HX8MRxSZfMu9SYUI
E9OnAycR3uNWu6SZRyBnl8O4B45CXCSvEqZNVztLIZtBoip4UXorGDODisrelCfO
J48L7SbmLj/Z8fGFBORj8fKidW9d14p9626smdDzcPGpTOITcDLhZAGtiVlq4wp3
Iwhppumff8rxvy3x9lD3Nr+YgFXSh8VuEymEUi8/ip807/K8/MAN3BMxkj6xw+ru
wA4cnXeNUtFbi1IEUBeifFbV90BbaPH6rRQplv9xMP6Qgh2hhYbj/dHUKHq2JqUu
nG2OzaGyYYtnijJNF+CatT+YwWAP9PubJJy9/bCAh+AQ/zIZHTDCUBwigfZccwQc
AA/06hqS8UwOMqO9n/t6yqaEzXzixciMiktdOF0wOlaRU8HN1S5j
-----END CERTIFICATE-----
