Certificate:
    Data:
        Version: 3 (0x2)
        Serial Number: 4101 (0x1005)
    Signature Algorithm: sha256WithRSAEncryption
        Issuer: C=DE, ST=Bavaria, L=Munich, O=BMW, OU=Car IT, CN=Root CA 1
        Validity
            Not Before: Apr  1 12:00:00 2150 GMT
            Not After : May  1 12:00:00 2150 GMT
        Subject: C=DE, ST=Bavaria, O=BMW, OU=Car IT, CN=Future Certificate
        Subject Public Key Info:
            Public Key Algorithm: rsaEncryption
                Public-Key: (2048 bit)
                Modulus:
                    00:d0:d7:fb:1b:7a:e9:7b:88:49:db:62:c0:1e:ef:
                    49:a1:8d:f4:d0:c1:92:81:52:1e:0d:66:17:fa:70:
                    9c:7f:46:c8:d6:5f:36:7f:49:a8:14:b2:49:13:75:
                    60:ce:62:3d:da:48:54:21:58:23:11:78:76:0f:20:
                    3d:1c:32:23:ae:1d:2b:74:e9:1e:3a:f0:17:66:1c:
                    96:b4:44:d9:f5:f1:3f:a2:2f:53:27:94:ce:ee:b6:
                    55:4d:93:19:7e:88:4f:cc:ec:9b:81:af:8f:98:24:
                    49:6e:5b:41:70:7c:fc:d9:6f:c4:b0:c5:9f:86:cb:
                    c7:5b:17:0a:26:ab:39:c5:a1:b7:83:d6:1c:69:17:
                    95:70:00:df:57:4c:b4:a0:56:57:ed:d6:af:a4:a7:
                    45:21:03:1d:6c:f4:4b:33:06:aa:2d:a6:ac:80:95:
                    9b:88:ef:77:48:b4:e6:9d:4e:28:e2:fe:52:f2:d1:
                    0f:ad:fb:f8:48:7c:ea:64:9e:7b:e1:43:03:67:31:
                    63:1f:37:5f:d4:d1:71:70:2c:fe:e4:cc:ca:48:86:
                    0f:32:c2:be:9a:29:b2:50:95:04:c2:e6:4a:15:a7:
                    98:d2:e7:23:3f:f7:87:26:65:93:4d:60:70:a7:c3:
                    51:1a:f8:d9:47:63:41:40:ad:dd:0b:dd:5a:f7:7f:
                    1f:f7
                Exponent: 65537 (0x10001)
        X509v3 extensions:
            X509v3 Basic Constraints: 
                CA:FALSE
            Netscape Cert Type: 
                SSL Client
            Netscape Comment: 
                OpenSSL Generated Client Certificate
            X509v3 Subject Key Identifier: 
                54:AA:25:14:BA:E4:57:00:74:2E:50:5B:35:1C:E5:D4:E0:BA:0D:C1
            X509v3 Authority Key Identifier: 
                keyid:D3:14:A3:86:B3:6F:70:70:94:1A:26:D6:20:38:D0:11:CF:A7:8A:B2

            X509v3 Key Usage: critical
                Digital Signature, Non Repudiation, Key Encipherment
            X509v3 Extended Key Usage: 
                TLS Web Client Authentication
    Signature Algorithm: sha256WithRSAEncryption
         46:55:1c:2d:e0:b0:b1:55:0b:e0:1d:33:af:65:26:de:b8:af:
         63:66:60:64:4a:35:a0:95:52:b2:c7:f5:69:34:20:62:2c:da:
         f3:1a:c9:0b:ae:b0:dd:c6:68:82:ae:d5:40:c5:96:9b:42:c5:
         ac:37:e9:d9:95:a9:58:fa:57:7e:c8:28:01:7a:8b:5d:94:94:
         b2:44:1b:20:aa:1d:a2:2e:14:04:57:92:39:6b:84:e2:0b:a1:
         29:49:e8:9a:07:70:ad:36:80:90:b4:81:7a:0b:9f:36:27:cf:
         35:45:78:a1:bb:b8:65:56:81:46:44:ad:01:91:a4:77:15:cb:
         2c:ed:fa:7c:83:b7:09:52:42:f4:c9:ff:26:6d:a3:53:fd:d1:
         4e:1e:c9:05:33:88:1e:8f:4a:99:94:2c:82:c2:2d:b4:ba:75:
         d4:a9:82:41:19:28:a1:49:e8:31:70:5d:2b:da:69:a0:56:f7:
         b3:83:f9:e9:a2:e0:44:6e:ee:80:01:72:6e:24:de:10:52:0f:
         38:b9:15:c6:22:6e:ef:84:b8:d3:03:25:09:c0:e4:e4:02:cf:
         62:38:fd:c7:2d:51:23:31:07:ff:5f:5c:4f:82:57:0d:06:fc:
         c7:f4:ff:03:7d:58:e4:02:06:0e:5a:b2:b6:4e:e4:5b:00:de:
         6a:56:9f:09:db:8f:4c:4c:21:66:78:6a:c0:b5:b4:bc:c5:1c:
         dd:7a:dd:ee:8a:ac:51:e0:03:59:cf:a6:fc:9d:7e:c2:71:6e:
         46:39:98:34:c3:43:65:e4:37:30:b6:53:06:d2:62:6e:07:f4:
         82:4f:af:fb:2c:61:97:ce:49:27:a7:3d:2a:93:15:0b:b7:9d:
         32:2c:b4:8e:87:5b:27:5c:b1:0e:3b:fc:0b:c3:2f:c1:93:1f:
         ce:a8:f7:0f:09:ff:c0:93:44:36:39:3e:71:1f:65:7b:8e:a4:
         e4:97:bb:7d:67:4c:c4:58:6a:df:ec:bd:7a:31:05:3d:7c:55:
         84:cb:4b:bf:0c:14:55:c9:03:f1:4a:76:9e:00:e7:a2:9d:13:
         ac:22:77:a6:fa:bc:5d:9e:04:0c:15:bb:98:af:28:11:69:b2:
         3a:0f:f8:0b:92:6c:89:f5:56:12:08:de:63:6c:d2:d2:2e:68:
         52:e8:08:2d:88:fc:d6:e9:de:78:c2:48:0c:5e:06:fd:97:3f:
         84:21:a6:9e:c8:af:2e:4a:1e:54:97:0f:32:e3:cc:d7:78:92:
         ee:4d:56:3b:fe:27:89:b6:5e:59:27:c6:c2:0f:d7:fc:3a:fa:
         8b:12:7e:a1:b5:0f:cb:a5:d5:63:56:cc:8d:5b:ff:05:f2:48:
         18:14:f7:69:34:e3:d0:a5
-----BEGIN CERTIFICATE-----
MIIE+jCCAuKgAwIBAgICEAUwDQYJKoZIhvcNAQELBQAwYzELMAkGA1UEBhMCREUx
EDAOBgNVBAgMB0JhdmFyaWExDzANBgNVBAcMBk11bmljaDEMMAoGA1UECgwDQk1X
MQ8wDQYDVQQLDAZDYXIgSVQxEjAQBgNVBAMMCVJvb3QgQ0EgMTAiGA8yMTUwMDQw
MTEyMDAwMFoYDzIxNTAwNTAxMTIwMDAwWjBbMQswCQYDVQQGEwJERTEQMA4GA1UE
CAwHQmF2YXJpYTEMMAoGA1UECgwDQk1XMQ8wDQYDVQQLDAZDYXIgSVQxGzAZBgNV
BAMMEkZ1dHVyZSBDZXJ0aWZpY2F0ZTCCASIwDQYJKoZIhvcNAQEBBQADggEPADCC
AQoCggEBANDX+xt66XuISdtiwB7vSaGN9NDBkoFSHg1mF/pwnH9GyNZfNn9JqBSy
SRN1YM5iPdpIVCFYIxF4dg8gPRwyI64dK3TpHjrwF2YclrRE2fXxP6IvUyeUzu62
VU2TGX6IT8zsm4Gvj5gkSW5bQXB8/NlvxLDFn4bLx1sXCiarOcWht4PWHGkXlXAA
31dMtKBWV+3Wr6SnRSEDHWz0SzMGqi2mrICVm4jvd0i05p1OKOL+UvLRD637+Eh8
6mSee+FDA2cxYx83X9TRcXAs/uTMykiGDzLCvpopslCVBMLmShWnmNLnIz/3hyZl
k01gcKfDURr42UdjQUCt3QvdWvd/H/cCAwEAAaOBuzCBuDAJBgNVHRMEAjAAMBEG
CWCGSAGG+EIBAQQEAwIHgDAzBglghkgBhvhCAQ0EJhYkT3BlblNTTCBHZW5lcmF0
ZWQgQ2xpZW50IENlcnRpZmljYXRlMB0GA1UdDgQWBBRUqiUUuuRXAHQuUFs1HOXU
4LoNwTAfBgNVHSMEGDAWgBTTFKOGs29wcJQaJtYgONARz6eKsjAOBgNVHQ8BAf8E
BAMCBeAwEwYDVR0lBAwwCgYIKwYBBQUHAwIwDQYJKoZIhvcNAQELBQADggIBAEZV
HC3gsLFVC+AdM69lJt64r2NmYGRKNaCVUrLH9Wk0IGIs2vMayQuusN3GaIKu1UDF
lptCxaw36dmVqVj6V37IKAF6i12UlLJEGyCqHaIuFARXkjlrhOILoSlJ6JoHcK02
gJC0gXoLnzYnzzVFeKG7uGVWgUZErQGRpHcVyyzt+nyDtwlSQvTJ/yZto1P90U4e
yQUziB6PSpmULILCLbS6ddSpgkEZKKFJ6DFwXSvaaaBW97OD+emi4ERu7oABcm4k
3hBSDzi5FcYibu+EuNMDJQnA5OQCz2I4/cctUSMxB/9fXE+CVw0G/Mf0/wN9WOQC
Bg5asrZO5FsA3mpWnwnbj0xMIWZ4asC1tLzFHN163e6KrFHgA1nPpvydfsJxbkY5
mDTDQ2XkNzC2UwbSYm4H9IJPr/ssYZfOSSenPSqTFQu3nTIstI6HWydcsQ47/AvD
L8GTH86o9w8J/8CTRDY5PnEfZXuOpOSXu31nTMRYat/svXoxBT18VYTLS78MFFXJ
A/FKdp4A56KdE6wid6b6vF2eBAwVu5ivKBFpsjoP+AuSbIn1VhII3mNs0tIuaFLo
CC2I/Nbp3njCSAxeBv2XP4Qhpp7Iry5KHlSXDzLjzNd4ku5NVjv+J4m2XlknxsIP
1/w6+osSfqG1D8ul1WNWzI1b/wXySBgU92k049Cl
-----END CERTIFICATE-----
