Certificate:
    Data:
        Version: 3 (0x2)
        Serial Number: 4097 (0x1001)
        Signature Algorithm: sha256WithRSAEncryption
        Issuer: C=DE, ST=Baden-Wuerttemberg, O=BMW Car IT GmbH, OU=HU Security, CN=MoCOCrW CRL Test Intermediate CA
        Validity
            Not Before: Jan 17 12:49:26 2020 GMT
            Not After : Dec 24 12:49:26 2119 GMT
        Subject: C=DE, ST=Baden-Wuerttemberg, O=BMW Car IT GmbH, OU=HU Security, CN=MoCOCrW CRL Test Certificate
        Subject Public Key Info:
            Public Key Algorithm: rsaEncryption
                RSA Public-Key: (2048 bit)
                Modulus:
                    00:b0:7e:f8:4d:44:41:73:2f:02:6e:16:9b:c5:ae:
                    c5:50:9c:6c:b9:5e:b0:ab:0a:68:1a:af:ff:e0:5e:
                    41:be:ce:11:ac:fd:9e:18:54:e6:71:90:e3:64:4a:
                    b6:f6:c1:7f:86:3b:f4:dd:99:78:f9:47:6a:d4:e8:
                    c3:13:e5:af:61:d0:74:e1:4a:23:c8:45:3c:8c:ec:
                    1a:80:5c:d1:b8:aa:18:f5:ae:27:67:62:93:7c:fd:
                    19:bd:fa:a3:0e:93:23:6a:45:44:8e:64:2a:3e:30:
                    8c:7c:f6:f7:bd:63:31:18:1f:ba:5a:2a:b9:17:db:
                    29:d0:5b:80:09:d1:13:9b:20:cd:7b:a6:2a:f8:00:
                    82:f6:47:5e:af:6b:7f:db:93:73:0c:50:c1:fa:3a:
                    30:e8:fe:aa:0f:4c:09:8a:4d:29:8e:0d:5f:2e:67:
                    ee:4d:2f:1c:f8:4d:e0:de:7d:16:47:2c:9b:53:b3:
                    ff:0d:e5:08:0d:3d:ad:e2:e5:f2:15:26:8d:bf:e6:
                    de:d0:16:51:bb:12:50:76:f5:03:22:c0:65:6d:aa:
                    22:9d:0f:a3:ed:f8:68:bb:a2:a1:c5:52:f6:61:9b:
                    7c:9e:71:7d:08:5f:d3:b0:f8:64:0e:42:6d:f4:4b:
                    12:1a:c1:f2:c7:c9:cc:e5:57:09:0d:63:d6:96:da:
                    69:49
                Exponent: 65537 (0x10001)
        X509v3 extensions:
            X509v3 Basic Constraints: 
                CA:FALSE
            Netscape Cert Type: 
                SSL Client
            Netscape Comment: 
                OpenSSL Generated Client Certificate
            X509v3 Subject Key Identifier: 
                BA:56:CB:C7:7F:3D:91:D8:AC:B3:45:23:C6:6A:6A:2F:8D:74:0F:EE
            X509v3 Authority Key Identifier: 
                keyid:32:83:6F:18:E1:93:2F:80:12:93:24:E3:A8:61:73:B0:D9:FA:5B:D1

            X509v3 Key Usage: critical
                Digital Signature, Non Repudiation, Key Encipherment
            X509v3 Extended Key Usage: 
                TLS Web Client Authentication
    Signature Algorithm: sha256WithRSAEncryption
         3e:77:09:67:12:f1:61:bb:f6:ef:04:82:0d:84:08:f7:46:9e:
         fe:22:6a:be:38:01:8f:80:31:e9:22:f8:81:a1:f3:68:7b:02:
         6d:92:e7:cd:1e:7a:fa:4f:96:64:d1:a1:68:8d:6e:5d:c8:a2:
         81:c6:06:79:95:7c:28:69:96:5e:57:96:b3:e7:28:6c:16:5c:
         fb:e6:aa:a2:5b:d6:18:21:c0:0a:f1:0c:fc:1e:b5:fe:23:1e:
         2b:21:91:32:13:8e:ab:66:09:94:ff:de:f0:a1:6f:d4:80:2e:
         57:84:89:b9:4f:e2:f4:9e:d9:11:8e:06:fe:52:15:16:9a:34:
         ca:d5:53:e3:ab:c5:64:36:50:e8:e5:36:fd:25:0b:eb:0a:e7:
         f7:7e:4c:6f:f0:f5:59:35:a7:da:0f:65:35:e6:4f:c2:8c:70:
         78:06:dd:88:56:3e:0a:e5:eb:97:03:89:7a:e8:aa:64:88:e2:
         e3:e5:0b:cb:a2:0f:e2:ee:16:1a:f3:03:72:83:38:c9:57:1c:
         6a:40:ad:6a:6c:7e:85:e3:58:05:43:d6:c4:ca:49:fe:c9:f4:
         b9:c3:8b:ef:0f:dc:d2:75:15:76:af:98:1d:9d:16:9e:19:93:
         a4:20:11:a8:d5:ec:e1:60:74:50:1a:67:c0:ed:df:13:56:42:
         b2:3c:20:d3:12:44:2a:e7:77:8f:58:ef:0e:06:87:db:26:86:
         57:ca:0a:7f:9f:91:47:58:01:e8:80:73:01:99:95:1b:dc:82:
         4f:54:32:9b:0c:29:7c:be:86:59:03:9f:10:4a:cd:57:70:7d:
         9e:4d:95:c8:33:cb:71:f1:93:f9:7a:f4:f9:93:65:5d:28:7c:
         2d:1b:99:e4:b3:c3:53:da:5e:78:aa:40:e0:f9:a2:72:cc:ca:
         65:17:99:6b:31:8b:03:7c:0d:c1:05:7c:f5:9b:79:7d:50:9b:
         25:10:17:c3:b0:60:7b:19:f5:fc:1d:3c:fb:64:52:52:6e:a4:
         7b:2c:cd:bb:7e:51:6b:4e:10:eb:0b:a1:da:90:97:73:f2:c3:
         97:83:b1:bb:3d:64:d2:84:e5:1b:fa:7e:dd:d8:15:95:fb:1b:
         a6:b2:9c:7b:e2:0d:82:63:b2:9b:f9:56:dd:c2:4c:42:ef:c3:
         14:64:7d:04:c1:dc:eb:35:22:d6:b3:0d:14:22:b8:32:7b:49:
         fc:93:83:df:b8:8f:0f:e8:13:79:28:c6:1b:31:f6:3d:de:d6:
         2f:6b:5f:fb:95:5c:f7:1b:ef:64:b7:38:79:83:3b:30:41:15:
         f2:47:fc:21:7b:b0:92:5d:4b:68:34:85:7f:55:e7:a2:60:94:
         81:1f:92:c9:60:6d:8a:ea
-----BEGIN CERTIFICATE-----
MIIFQjCCAyqgAwIBAgICEAEwDQYJKoZIhvcNAQELBQAwgYUxCzAJBgNVBAYTAkRF
MRswGQYDVQQIDBJCYWRlbi1XdWVydHRlbWJlcmcxGDAWBgNVBAoMD0JNVyBDYXIg
SVQgR21iSDEUMBIGA1UECwwLSFUgU2VjdXJpdHkxKTAnBgNVBAMMIE1vQ09Dclcg
Q1JMIFRlc3QgSW50ZXJtZWRpYXRlIENBMCAXDTIwMDExNzEyNDkyNloYDzIxMTkx
MjI0MTI0OTI2WjCBgTELMAkGA1UEBhMCREUxGzAZBgNVBAgMEkJhZGVuLVd1ZXJ0
dGVtYmVyZzEYMBYGA1UECgwPQk1XIENhciBJVCBHbWJIMRQwEgYDVQQLDAtIVSBT
ZWN1cml0eTElMCMGA1UEAwwcTW9DT0NyVyBDUkwgVGVzdCBDZXJ0aWZpY2F0ZTCC
ASIwDQYJKoZIhvcNAQEBBQADggEPADCCAQoCggEBALB++E1EQXMvAm4Wm8WuxVCc
bLlesKsKaBqv/+BeQb7OEaz9nhhU5nGQ42RKtvbBf4Y79N2ZePlHatTowxPlr2HQ
dOFKI8hFPIzsGoBc0biqGPWuJ2dik3z9Gb36ow6TI2pFRI5kKj4wjHz2971jMRgf
uloquRfbKdBbgAnRE5sgzXumKvgAgvZHXq9rf9uTcwxQwfo6MOj+qg9MCYpNKY4N
Xy5n7k0vHPhN4N59Fkcsm1Oz/w3lCA09reLl8hUmjb/m3tAWUbsSUHb1AyLAZW2q
Ip0Po+34aLuiocVS9mGbfJ5xfQhf07D4ZA5CbfRLEhrB8sfJzOVXCQ1j1pbaaUkC
AwEAAaOBuzCBuDAJBgNVHRMEAjAAMBEGCWCGSAGG+EIBAQQEAwIHgDAzBglghkgB
hvhCAQ0EJhYkT3BlblNTTCBHZW5lcmF0ZWQgQ2xpZW50IENlcnRpZmljYXRlMB0G
A1UdDgQWBBS6VsvHfz2R2KyzRSPGamovjXQP7jAfBgNVHSMEGDAWgBQyg28Y4ZMv
gBKTJOOoYXOw2fpb0TAOBgNVHQ8BAf8EBAMCBeAwEwYDVR0lBAwwCgYIKwYBBQUH
AwIwDQYJKoZIhvcNAQELBQADggIBAD53CWcS8WG79u8Egg2ECPdGnv4iar44AY+A
Meki+IGh82h7Am2S580eevpPlmTRoWiNbl3IooHGBnmVfChpll5XlrPnKGwWXPvm
qqJb1hghwArxDPwetf4jHishkTITjqtmCZT/3vChb9SALleEiblP4vSe2RGOBv5S
FRaaNMrVU+OrxWQ2UOjlNv0lC+sK5/d+TG/w9Vk1p9oPZTXmT8KMcHgG3YhWPgrl
65cDiXroqmSI4uPlC8uiD+LuFhrzA3KDOMlXHGpArWpsfoXjWAVD1sTKSf7J9LnD
i+8P3NJ1FXavmB2dFp4Zk6QgEajV7OFgdFAaZ8Dt3xNWQrI8INMSRCrnd49Y7w4G
h9smhlfKCn+fkUdYAeiAcwGZlRvcgk9UMpsMKXy+hlkDnxBKzVdwfZ5Nlcgzy3Hx
k/l69PmTZV0ofC0bmeSzw1PaXniqQOD5onLMymUXmWsxiwN8DcEFfPWbeX1QmyUQ
F8OwYHsZ9fwdPPtkUlJupHsszbt+UWtOEOsLodqQl3Pyw5eDsbs9ZNKE5Rv6ft3Y
FZX7G6aynHviDYJjspv5Vt3CTELvwxRkfQTB3Os1ItazDRQiuDJ7SfyTg9+4jw/o
E3koxhsx9j3e1i9rX/uVXPcb72S3OHmDOzBBFfJH/CF7sJJdS2g0hX9V56JglIEf
kslgbYrq
-----END CERTIFICATE-----
