Certificate:
    Data:
        Version: 3 (0x2)
        Serial Number: 4096 (0x1000)
    Signature Algorithm: sha256WithRSAEncryption
        Issuer: C=DE, ST=Bavaria, O=BMW, OU=Car IT, CN=Intemediate CA 1
        Validity
            Not Before: Mar 27 12:55:27 2017 GMT
            Not After : Aug 12 12:55:27 2044 GMT
        Subject: C=DE, ST=Bavaria, O=BMW, OU=Car IT, CN=Intermediate CA 1 / Intermediate CA 1.1
        Subject Public Key Info:
            Public Key Algorithm: rsaEncryption
                Public-Key: (2048 bit)
                Modulus:
                    00:fa:7b:de:b1:8c:7c:a0:ec:e2:8b:55:76:63:a9:
                    af:6d:d9:a7:15:cf:f5:f3:5a:f4:57:7e:8e:07:e9:
                    64:f1:20:8c:2d:b0:47:19:9a:f8:b1:40:62:3a:46:
                    db:97:16:0e:57:6a:df:6b:69:ec:6f:84:cb:59:01:
                    35:df:1e:5f:52:89:22:b5:25:a6:f8:a9:ee:14:d4:
                    50:9c:bd:cd:15:e0:38:38:50:6a:e9:3d:30:6a:5d:
                    9c:14:e9:7a:fd:a2:cf:14:79:43:7e:b6:2c:fb:9f:
                    54:69:2f:13:9a:47:42:71:66:9d:78:23:ff:e3:cb:
                    d2:3c:44:33:29:38:ba:ee:ee:62:b9:c4:91:91:e9:
                    cc:ee:ad:e4:7a:2b:c0:a9:4e:c0:69:b8:22:d8:4f:
                    06:59:b4:17:80:b8:47:f4:6f:c3:67:a7:25:ec:52:
                    64:f3:ce:a3:a9:81:f4:cf:a8:85:bb:38:64:78:2d:
                    8b:e6:56:9b:d2:03:03:af:27:01:3a:0f:62:21:ea:
                    56:24:b5:47:98:8d:fa:da:c9:b2:4a:63:e4:bd:17:
                    34:19:c2:7e:c8:67:e1:b4:1f:53:ac:df:47:14:51:
                    e2:09:7e:08:07:69:8c:a5:fc:a0:d3:bb:13:ba:d4:
                    6a:fa:3a:0f:68:57:10:47:eb:49:ea:6c:24:8d:71:
                    3e:db
                Exponent: 65537 (0x10001)
        X509v3 extensions:
            X509v3 Subject Key Identifier: 
                05:C3:1A:B4:4B:43:75:E4:A4:4E:7A:94:15:DB:91:C7:BC:FA:95:6B
            X509v3 Authority Key Identifier: 
                keyid:10:BB:7A:A1:82:16:CF:CE:22:FF:EB:99:E1:B7:9D:D3:0D:7D:32:82

            X509v3 Basic Constraints: critical
                CA:TRUE, pathlen:0
            X509v3 Key Usage: critical
                Digital Signature, Certificate Sign, CRL Sign
    Signature Algorithm: sha256WithRSAEncryption
         3c:f3:31:2f:67:67:19:05:2b:3f:c5:7e:3d:ed:56:42:c3:95:
         e0:df:04:a7:fb:e3:2e:31:3d:e9:8f:39:4b:83:cf:a3:df:f1:
         80:ab:3c:2b:b7:40:ec:a9:93:3f:a9:a5:7a:7e:b9:60:ad:3c:
         61:22:ab:c3:90:2b:62:b5:35:f3:89:70:72:31:39:3d:b6:e1:
         47:6a:ff:c1:1f:0e:da:19:d7:67:70:3c:04:db:fa:7e:bc:0b:
         07:a3:61:a3:6b:13:fb:d4:79:43:62:42:08:63:c5:76:d4:f5:
         b1:8f:f1:94:34:3d:e2:c4:be:47:f9:a8:f3:9b:1d:15:78:d9:
         5b:2c:27:ea:3f:5f:7c:04:fc:be:ee:f8:17:8d:eb:17:37:8a:
         98:b9:a5:5b:59:9d:3a:07:93:49:32:85:ec:7e:4b:0f:32:30:
         14:1f:16:7d:a6:d9:02:48:47:37:ed:78:6e:19:3e:9f:60:50:
         da:6a:ef:94:03:7b:7a:84:14:19:db:c6:43:ea:de:f3:42:d4:
         94:2f:ce:3c:cc:7d:8d:a7:de:9f:05:01:69:c8:3e:c9:db:4e:
         3d:ad:49:4b:dd:21:a1:99:ba:08:d5:fb:bc:e3:19:e9:71:77:
         41:2c:2f:c2:29:46:02:50:cd:ed:30:31:26:f5:29:fc:95:4f:
         2e:65:2b:c0
-----BEGIN CERTIFICATE-----
MIIDqzCCApOgAwIBAgICEAAwDQYJKoZIhvcNAQELBQAwWTELMAkGA1UEBhMCREUx
EDAOBgNVBAgMB0JhdmFyaWExDDAKBgNVBAoMA0JNVzEPMA0GA1UECwwGQ2FyIElU
MRkwFwYDVQQDDBBJbnRlbWVkaWF0ZSBDQSAxMB4XDTE3MDMyNzEyNTUyN1oXDTQ0
MDgxMjEyNTUyN1owcDELMAkGA1UEBhMCREUxEDAOBgNVBAgMB0JhdmFyaWExDDAK
BgNVBAoMA0JNVzEPMA0GA1UECwwGQ2FyIElUMTAwLgYDVQQDDCdJbnRlcm1lZGlh
dGUgQ0EgMSAvIEludGVybWVkaWF0ZSBDQSAxLjEwggEiMA0GCSqGSIb3DQEBAQUA
A4IBDwAwggEKAoIBAQD6e96xjHyg7OKLVXZjqa9t2acVz/XzWvRXfo4H6WTxIIwt
sEcZmvixQGI6RtuXFg5Xat9raexvhMtZATXfHl9SiSK1Jab4qe4U1FCcvc0V4Dg4
UGrpPTBqXZwU6Xr9os8UeUN+tiz7n1RpLxOaR0JxZp14I//jy9I8RDMpOLru7mK5
xJGR6czureR6K8CpTsBpuCLYTwZZtBeAuEf0b8NnpyXsUmTzzqOpgfTPqIW7OGR4
LYvmVpvSAwOvJwE6D2Ih6lYktUeYjfraybJKY+S9FzQZwn7IZ+G0H1Os30cUUeIJ
fggHaYyl/KDTuxO61Gr6Og9oVxBH60nqbCSNcT7bAgMBAAGjZjBkMB0GA1UdDgQW
BBQFwxq0S0N15KROepQV25HHvPqVazAfBgNVHSMEGDAWgBQQu3qhghbPziL/65nh
t53TDX0ygjASBgNVHRMBAf8ECDAGAQH/AgEAMA4GA1UdDwEB/wQEAwIBhjANBgkq
hkiG9w0BAQsFAAOCAQEAPPMxL2dnGQUrP8V+Pe1WQsOV4N8Ep/vjLjE96Y85S4PP
o9/xgKs8K7dA7KmTP6mlen65YK08YSKrw5ArYrU184lwcjE5PbbhR2r/wR8O2hnX
Z3A8BNv6frwLB6Nho2sT+9R5Q2JCCGPFdtT1sY/xlDQ94sS+R/mo85sdFXjZWywn
6j9ffAT8vu74F43rFzeKmLmlW1mdOgeTSTKF7H5LDzIwFB8WfabZAkhHN+14bhk+
n2BQ2mrvlAN7eoQUGdvGQ+re80LUlC/OPMx9jafenwUBacg+ydtOPa1JS90hoZm6
CNX7vOMZ6XF3QSwvwilGAlDN7TAxJvUp/JVPLmUrwA==
-----END CERTIFICATE-----
