Certificate:
    Data:
        Version: 3 (0x2)
        Serial Number: 4096 (0x1000)
    Signature Algorithm: sha256WithRSAEncryption
        Issuer: C=DE, ST=Bavaria, O=BMW, OU=Car IT, CN=Intermediate CA 2
        Validity
            Not Before: Mar 27 19:04:33 2017 GMT
            Not After : Aug 12 19:04:33 2044 GMT
        Subject: C=DE, ST=Bavaria, O=BMW, OU=Car IT, CN=Invalid CA (pathlen violated)
        Subject Public Key Info:
            Public Key Algorithm: rsaEncryption
                Public-Key: (2048 bit)
                Modulus:
                    00:a5:8d:37:1a:02:2e:79:3e:b9:20:0b:ef:8c:db:
                    0a:5c:45:ac:80:f0:68:bd:6e:d8:e1:33:6b:cb:27:
                    61:df:a2:d4:9c:21:c8:19:dc:05:7b:6c:cc:ab:e9:
                    e8:7d:76:7b:c7:c8:f4:32:63:04:9c:68:79:0a:fd:
                    4a:c1:72:ca:99:45:72:e3:19:61:0f:b8:97:3a:a8:
                    58:98:e0:62:04:2d:88:c5:d8:d7:26:ca:fb:9b:d4:
                    c0:19:6e:a6:07:b7:88:c0:b6:47:25:1d:26:74:6f:
                    4d:c1:5f:b8:d1:22:66:36:ac:b6:de:20:06:0a:1d:
                    9d:9d:e1:e7:d1:cb:06:ca:4f:7d:65:68:11:15:33:
                    37:c3:31:c4:08:2e:9e:72:7c:1c:bd:8d:c8:51:5d:
                    33:cb:8c:0b:04:6a:94:55:64:ad:42:b7:99:34:69:
                    f4:ae:9f:44:cc:f2:87:bf:9d:80:a1:56:a7:de:c7:
                    9a:96:a8:23:35:22:8f:aa:03:ac:d0:f2:0d:24:77:
                    67:79:e6:86:49:f8:44:de:70:bb:c9:cc:2c:20:37:
                    d0:1b:68:60:45:ad:21:05:6a:8a:b7:f8:92:23:b8:
                    2d:83:8f:51:6f:dd:2a:ca:a4:d9:a3:66:bd:77:f4:
                    db:3a:eb:05:fa:d3:e8:e9:44:5b:0f:2e:d6:79:3c:
                    5b:01
                Exponent: 65537 (0x10001)
        X509v3 extensions:
            X509v3 Subject Key Identifier: 
                05:B0:DC:37:52:D7:F0:B3:D9:BD:75:D2:9E:BF:78:13:E7:16:A2:9F
            X509v3 Authority Key Identifier: 
                keyid:9D:AE:8D:37:E5:AA:A0:5D:DD:D7:7C:6C:85:0F:D6:DF:F4:61:33:6B

            X509v3 Basic Constraints: critical
                CA:TRUE, pathlen:0
            X509v3 Key Usage: critical
                Digital Signature, Certificate Sign, CRL Sign
    Signature Algorithm: sha256WithRSAEncryption
         48:ce:49:7f:e3:e5:ef:cc:cb:ad:62:e3:a1:a2:df:e5:68:f6:
         4b:eb:39:1a:c6:71:c7:70:52:c4:fa:54:b9:32:54:dd:f6:7f:
         b1:09:61:81:47:ad:ad:50:8d:81:8f:41:e0:37:ed:22:47:58:
         12:c1:cd:6b:3e:be:3e:cc:2e:4e:a8:cb:cd:78:5f:dd:8d:f0:
         0b:d8:f7:d5:a6:29:b4:c9:b7:c3:fa:10:88:e4:bc:e6:f5:ba:
         60:08:f2:75:c4:a7:af:37:fd:5f:c6:bb:c4:54:c6:1c:87:bd:
         78:dd:c8:fb:c6:7c:f2:56:88:cc:58:9c:66:f6:f0:d8:7d:e8:
         94:94:23:76:0a:6c:ac:50:8c:82:4f:aa:00:5a:09:6d:06:aa:
         69:ca:77:ec:09:e8:bb:4d:ba:2d:76:a1:a8:0e:73:54:27:aa:
         0b:b8:6a:28:fe:b6:a8:2f:39:cc:8d:c9:de:6c:96:eb:a1:af:
         d6:2f:dd:70:0b:82:24:4c:8d:d7:61:8f:fd:be:0c:0e:53:89:
         af:c9:e3:d6:2c:5e:f3:58:05:fb:fa:a4:b9:7d:97:a9:06:02:
         42:83:b1:df:d7:4f:fa:e4:38:7e:0d:2b:75:73:cb:fe:1f:c4:
         bf:6b:91:29:2f:72:9b:c7:b3:9e:0d:ce:b6:30:0f:0c:cb:47:
         ff:15:3e:9c
-----BEGIN CERTIFICATE-----
MIIDojCCAoqgAwIBAgICEAAwDQYJKoZIhvcNAQELBQAwWjELMAkGA1UEBhMCREUx
EDAOBgNVBAgMB0JhdmFyaWExDDAKBgNVBAoMA0JNVzEPMA0GA1UECwwGQ2FyIElU
MRowGAYDVQQDDBFJbnRlcm1lZGlhdGUgQ0EgMjAeFw0xNzAzMjcxOTA0MzNaFw00
NDA4MTIxOTA0MzNaMGYxCzAJBgNVBAYTAkRFMRAwDgYDVQQIDAdCYXZhcmlhMQww
CgYDVQQKDANCTVcxDzANBgNVBAsMBkNhciBJVDEmMCQGA1UEAwwdSW52YWxpZCBD
QSAocGF0aGxlbiB2aW9sYXRlZCkwggEiMA0GCSqGSIb3DQEBAQUAA4IBDwAwggEK
AoIBAQCljTcaAi55PrkgC++M2wpcRayA8Gi9btjhM2vLJ2HfotScIcgZ3AV7bMyr
6eh9dnvHyPQyYwScaHkK/UrBcsqZRXLjGWEPuJc6qFiY4GIELYjF2Ncmyvub1MAZ
bqYHt4jAtkclHSZ0b03BX7jRImY2rLbeIAYKHZ2d4efRywbKT31laBEVMzfDMcQI
Lp5yfBy9jchRXTPLjAsEapRVZK1Ct5k0afSun0TM8oe/nYChVqfex5qWqCM1Io+q
A6zQ8g0kd2d55oZJ+ETecLvJzCwgN9AbaGBFrSEFaoq3+JIjuC2Dj1Fv3SrKpNmj
Zr139Ns66wX60+jpRFsPLtZ5PFsBAgMBAAGjZjBkMB0GA1UdDgQWBBQFsNw3Utfw
s9m9ddKev3gT5xainzAfBgNVHSMEGDAWgBSdro035aqgXd3XfGyFD9bf9GEzazAS
BgNVHRMBAf8ECDAGAQH/AgEAMA4GA1UdDwEB/wQEAwIBhjANBgkqhkiG9w0BAQsF
AAOCAQEASM5Jf+Pl78zLrWLjoaLf5Wj2S+s5GsZxx3BSxPpUuTJU3fZ/sQlhgUet
rVCNgY9B4DftIkdYEsHNaz6+PswuTqjLzXhf3Y3wC9j31aYptMm3w/oQiOS85vW6
YAjydcSnrzf9X8a7xFTGHIe9eN3I+8Z88laIzFicZvbw2H3olJQjdgpsrFCMgk+q
AFoJbQaqacp37Anou026LXahqA5zVCeqC7hqKP62qC85zI3J3myW66Gv1i/dcAuC
JEyN12GP/b4MDlOJr8nj1ixe81gF+/qkuX2XqQYCQoOx39dP+uQ4fg0rdXPL/h/E
v2uRKS9ym8ezng3OtjAPDMtH/xU+nA==
-----END CERTIFICATE-----
