Certificate:
    Data:
        Version: 3 (0x2)
        Serial Number: 4096 (0x1000)
    Signature Algorithm: sha256WithRSAEncryption
        Issuer: C=DE, ST=Bavaria, O=BMW, OU=Car IT, CN=Intermediate CA 1 / Intermediate CA 1.1
        Validity
            Not Before: Mar 27 14:20:03 2017 GMT
            Not After : Aug 12 14:20:03 2044 GMT
        Subject: C=DE, ST=Bavaria, O=BMW, OU=Car IT, CN=Leaf certificate 1
        Subject Public Key Info:
            Public Key Algorithm: rsaEncryption
                Public-Key: (2048 bit)
                Modulus:
                    00:e5:f4:71:58:24:26:0f:b1:29:c1:09:51:31:7b:
                    7d:ed:fd:19:68:68:66:f9:7c:e8:46:63:b6:f1:57:
                    ab:d0:49:2b:51:85:32:c9:24:61:38:3a:b7:bc:7a:
                    34:d8:c6:65:a3:47:d1:bc:e7:d0:64:f3:4e:81:6c:
                    ac:36:d1:2e:b0:d6:ac:79:4c:11:3a:11:f6:ca:d9:
                    18:fd:62:d9:90:dd:91:70:9c:08:db:c2:24:35:63:
                    97:e0:03:77:a9:05:e3:d0:8a:cc:57:42:17:ec:f1:
                    4e:3a:8d:9d:f5:5e:bc:ee:44:c4:7f:1e:ac:c3:4e:
                    fc:08:10:04:76:2b:13:35:43:ff:77:13:54:8d:5d:
                    34:b1:35:9f:6e:64:a8:aa:79:03:82:d7:83:28:d1:
                    9d:7a:f0:bf:00:0f:bf:52:cc:fa:b0:83:5d:5b:2c:
                    79:69:fc:ca:21:6b:0a:27:79:36:f8:76:0d:4d:3a:
                    10:8e:a1:89:91:69:e3:79:66:20:94:50:09:3c:ab:
                    49:f6:4e:74:8b:c1:28:7f:12:cb:b9:71:5c:c7:a9:
                    b0:f2:c1:8a:dc:0d:dc:97:d9:8b:48:61:9d:0c:e0:
                    0a:82:f3:b1:3e:42:c0:de:3b:77:eb:fd:dd:32:2d:
                    9b:aa:b6:e5:04:d6:03:33:f5:5a:13:d3:5d:b5:98:
                    45:cf
                Exponent: 65537 (0x10001)
        X509v3 extensions:
            X509v3 Basic Constraints: 
                CA:FALSE
            Netscape Cert Type: 
                SSL Client
            Netscape Comment: 
                OpenSSL Generated Client Certificate
            X509v3 Subject Key Identifier: 
                66:23:10:0C:34:3C:61:EA:C0:5A:F4:23:72:13:9B:3A:32:D2:94:9E
            X509v3 Authority Key Identifier: 
                keyid:05:C3:1A:B4:4B:43:75:E4:A4:4E:7A:94:15:DB:91:C7:BC:FA:95:6B

            X509v3 Key Usage: critical
                Digital Signature, Non Repudiation, Key Encipherment
            X509v3 Extended Key Usage: 
                TLS Web Client Authentication
    Signature Algorithm: sha256WithRSAEncryption
         e5:ac:5f:01:ca:f0:b6:1c:d1:a5:24:a2:4e:70:4c:e7:aa:30:
         ca:1e:38:ed:01:5e:38:a3:af:53:c8:54:28:10:69:81:56:5f:
         58:67:a2:26:bf:5a:b7:ca:fa:34:a5:cd:5c:c1:7c:0e:a9:9d:
         d7:dc:de:3f:dd:a4:da:2c:e6:89:20:cb:95:3f:2c:0d:02:a7:
         62:02:59:d9:25:c8:38:80:9c:0b:d2:7a:2f:4f:ec:86:fa:76:
         37:97:dc:b2:f5:0f:06:ce:58:19:ba:cb:cc:40:91:71:d9:4c:
         c6:55:0d:30:f4:c9:1d:01:cf:da:b3:34:d5:27:f7:2a:56:5b:
         f0:01:1a:9d:cf:67:6f:7d:ea:9c:8e:95:90:2e:6f:74:d9:f1:
         bc:1b:d0:cd:d9:29:9a:da:a7:86:c9:5d:53:ef:5b:cb:e1:33:
         55:34:0f:b2:ad:ef:c5:6d:b2:09:f3:79:85:ea:5c:71:5e:a6:
         58:6c:7a:50:b1:d1:c6:0e:31:1e:33:7b:00:c9:5f:c0:6d:9c:
         01:8b:5c:65:82:e9:b8:3c:fc:59:43:82:89:38:c7:7a:14:36:
         e0:21:62:84:e3:03:5e:f2:1c:3d:c5:01:1a:56:c9:7b:5a:31:
         88:d1:4a:70:da:f2:db:49:0b:3c:21:00:27:97:d8:1a:ce:16:
         5e:f4:7b:16
-----BEGIN CERTIFICATE-----
MIIEAzCCAuugAwIBAgICEAAwDQYJKoZIhvcNAQELBQAwcDELMAkGA1UEBhMCREUx
EDAOBgNVBAgMB0JhdmFyaWExDDAKBgNVBAoMA0JNVzEPMA0GA1UECwwGQ2FyIElU
MTAwLgYDVQQDDCdJbnRlcm1lZGlhdGUgQ0EgMSAvIEludGVybWVkaWF0ZSBDQSAx
LjEwHhcNMTcwMzI3MTQyMDAzWhcNNDQwODEyMTQyMDAzWjBbMQswCQYDVQQGEwJE
RTEQMA4GA1UECAwHQmF2YXJpYTEMMAoGA1UECgwDQk1XMQ8wDQYDVQQLDAZDYXIg
SVQxGzAZBgNVBAMMEkxlYWYgY2VydGlmaWNhdGUgMTCCASIwDQYJKoZIhvcNAQEB
BQADggEPADCCAQoCggEBAOX0cVgkJg+xKcEJUTF7fe39GWhoZvl86EZjtvFXq9BJ
K1GFMskkYTg6t7x6NNjGZaNH0bzn0GTzToFsrDbRLrDWrHlMEToR9srZGP1i2ZDd
kXCcCNvCJDVjl+ADd6kF49CKzFdCF+zxTjqNnfVevO5ExH8erMNO/AgQBHYrEzVD
/3cTVI1dNLE1n25kqKp5A4LXgyjRnXrwvwAPv1LM+rCDXVsseWn8yiFrCid5Nvh2
DU06EI6hiZFp43lmIJRQCTyrSfZOdIvBKH8Sy7lxXMepsPLBitwN3JfZi0hhnQzg
CoLzsT5CwN47d+v93TItm6q25QTWAzP1WhPTXbWYRc8CAwEAAaOBuzCBuDAJBgNV
HRMEAjAAMBEGCWCGSAGG+EIBAQQEAwIHgDAzBglghkgBhvhCAQ0EJhYkT3BlblNT
TCBHZW5lcmF0ZWQgQ2xpZW50IENlcnRpZmljYXRlMB0GA1UdDgQWBBRmIxAMNDxh
6sBa9CNyE5s6MtKUnjAfBgNVHSMEGDAWgBQFwxq0S0N15KROepQV25HHvPqVazAO
BgNVHQ8BAf8EBAMCBeAwEwYDVR0lBAwwCgYIKwYBBQUHAwIwDQYJKoZIhvcNAQEL
BQADggEBAOWsXwHK8LYc0aUkok5wTOeqMMoeOO0BXjijr1PIVCgQaYFWX1hnoia/
WrfK+jSlzVzBfA6pndfc3j/dpNos5okgy5U/LA0Cp2ICWdklyDiAnAvSei9P7Ib6
djeX3LL1DwbOWBm6y8xAkXHZTMZVDTD0yR0Bz9qzNNUn9ypWW/ABGp3PZ2996pyO
lZAub3TZ8bwb0M3ZKZrap4bJXVPvW8vhM1U0D7Kt78VtsgnzeYXqXHFeplhselCx
0cYOMR4zewDJX8BtnAGLXGWC6bg8/FlDgok4x3oUNuAhYoTjA17yHD3FARpWyXta
MYjRSnDa8ttJCzwhACeX2BrOFl70exY=
-----END CERTIFICATE-----
