Certificate:
    Data:
        Version: 3 (0x2)
        Serial Number: 4097 (0x1001)
    Signature Algorithm: sha256WithRSAEncryption
        Issuer: C=DE, ST=Bavaria, O=BMW, OU=Car IT, CN=Intermediate CA 1 / Intermediate CA 1.1
        Validity
            Not Before: Mar 27 14:20:13 2017 GMT
            Not After : Aug 12 14:20:13 2044 GMT
        Subject: C=DE, ST=Bavaria, O=BMW, OU=Car IT, CN=Leaf certificate 2
        Subject Public Key Info:
            Public Key Algorithm: rsaEncryption
                Public-Key: (2048 bit)
                Modulus:
                    00:d9:28:09:fe:2f:12:73:c0:48:cb:73:1a:5d:ee:
                    0a:78:14:4f:02:45:3f:40:8e:11:40:6c:01:29:22:
                    28:24:f5:33:94:b7:cb:47:ed:f6:7d:09:b7:96:95:
                    35:d5:62:c3:4d:8e:4c:5c:3f:03:e0:46:d3:c3:b5:
                    10:f4:cb:d7:01:90:b8:0a:4d:0c:c0:db:5e:70:0e:
                    f0:71:27:24:46:c8:e5:1a:37:6d:64:04:57:ed:f6:
                    fd:b3:84:06:29:07:83:58:7a:92:0f:0b:0a:d6:09:
                    4a:ac:4d:44:cb:b0:0e:da:f1:59:bf:4e:9b:64:55:
                    53:4e:d3:47:f6:c0:26:38:61:bd:fb:36:8d:19:ed:
                    91:a5:49:27:32:dc:e1:5e:d3:ff:69:42:4c:69:00:
                    9c:30:79:97:e4:e5:f6:03:d3:03:1b:99:eb:e0:e8:
                    bd:4c:b4:87:89:ed:e8:a0:f7:31:7b:f5:88:4d:f7:
                    5d:f8:ab:4d:4d:57:56:43:36:65:5b:b9:c3:a7:01:
                    59:06:35:e2:1e:8b:2f:7e:45:07:52:26:cd:99:07:
                    6f:27:30:06:34:a9:c9:22:96:9f:8e:aa:59:9e:bd:
                    a9:7f:a8:9c:e6:39:78:42:e9:b3:a9:fb:c5:09:72:
                    bb:27:7e:01:2a:d0:44:86:3f:6e:ee:6b:b5:07:d4:
                    ed:ed
                Exponent: 65537 (0x10001)
        X509v3 extensions:
            X509v3 Basic Constraints: 
                CA:FALSE
            Netscape Cert Type: 
                SSL Client
            Netscape Comment: 
                OpenSSL Generated Client Certificate
            X509v3 Subject Key Identifier: 
                66:61:B1:E8:12:75:8F:6C:53:33:46:79:45:14:CC:4F:C4:08:00:19
            X509v3 Authority Key Identifier: 
                keyid:05:C3:1A:B4:4B:43:75:E4:A4:4E:7A:94:15:DB:91:C7:BC:FA:95:6B

            X509v3 Key Usage: critical
                Digital Signature, Non Repudiation, Key Encipherment
            X509v3 Extended Key Usage: 
                TLS Web Client Authentication
    Signature Algorithm: sha256WithRSAEncryption
         70:4e:30:ed:91:6d:ad:57:e8:fc:9f:79:37:84:76:a0:74:bd:
         3b:53:cd:64:a8:5c:1a:53:c0:30:92:af:22:7e:b9:73:a5:08:
         27:d8:ed:32:66:0c:c9:e6:9b:0c:e8:da:3e:a9:5d:67:86:05:
         86:2e:ea:59:51:b5:26:be:cc:eb:1d:fa:db:b8:2c:c5:25:b7:
         8a:8c:d9:7c:a1:b1:f6:05:89:da:a0:d1:4a:d9:81:97:69:c2:
         a8:ed:2c:69:44:34:0c:9b:27:e1:85:ea:6a:8a:3f:a1:ca:e4:
         8a:19:06:b2:22:f3:f0:3b:01:69:e0:90:d9:48:1d:62:74:83:
         77:42:ba:8f:8e:57:03:37:1e:e9:6a:90:03:21:f0:a7:ba:e6:
         14:23:e7:ea:04:12:d5:05:84:f7:bc:e1:fd:09:5c:6d:2a:9f:
         5c:33:b5:e0:81:3c:c1:96:75:c1:35:0a:0b:0b:63:dc:c7:a4:
         3f:65:e0:01:87:4e:83:15:5b:ee:0b:c1:16:82:f1:88:52:c8:
         84:77:06:d6:69:95:00:f3:89:f6:7f:5e:21:93:73:6c:3e:c8:
         eb:8e:cf:61:e6:60:eb:12:94:f8:d2:2e:e8:01:62:e3:91:e9:
         a8:b3:78:a6:29:7e:08:b7:91:1d:65:7c:1d:b0:68:9d:85:c4:
         62:c3:7b:eb
-----BEGIN CERTIFICATE-----
MIIEAzCCAuugAwIBAgICEAEwDQYJKoZIhvcNAQELBQAwcDELMAkGA1UEBhMCREUx
EDAOBgNVBAgMB0JhdmFyaWExDDAKBgNVBAoMA0JNVzEPMA0GA1UECwwGQ2FyIElU
MTAwLgYDVQQDDCdJbnRlcm1lZGlhdGUgQ0EgMSAvIEludGVybWVkaWF0ZSBDQSAx
LjEwHhcNMTcwMzI3MTQyMDEzWhcNNDQwODEyMTQyMDEzWjBbMQswCQYDVQQGEwJE
RTEQMA4GA1UECAwHQmF2YXJpYTEMMAoGA1UECgwDQk1XMQ8wDQYDVQQLDAZDYXIg
SVQxGzAZBgNVBAMMEkxlYWYgY2VydGlmaWNhdGUgMjCCASIwDQYJKoZIhvcNAQEB
BQADggEPADCCAQoCggEBANkoCf4vEnPASMtzGl3uCngUTwJFP0COEUBsASkiKCT1
M5S3y0ft9n0Jt5aVNdViw02OTFw/A+BG08O1EPTL1wGQuApNDMDbXnAO8HEnJEbI
5Ro3bWQEV+32/bOEBikHg1h6kg8LCtYJSqxNRMuwDtrxWb9Om2RVU07TR/bAJjhh
vfs2jRntkaVJJzLc4V7T/2lCTGkAnDB5l+Tl9gPTAxuZ6+DovUy0h4nt6KD3MXv1
iE33XfirTU1XVkM2ZVu5w6cBWQY14h6LL35FB1ImzZkHbycwBjSpySKWn46qWZ69
qX+onOY5eELps6n7xQlyuyd+ASrQRIY/bu5rtQfU7e0CAwEAAaOBuzCBuDAJBgNV
HRMEAjAAMBEGCWCGSAGG+EIBAQQEAwIHgDAzBglghkgBhvhCAQ0EJhYkT3BlblNT
TCBHZW5lcmF0ZWQgQ2xpZW50IENlcnRpZmljYXRlMB0GA1UdDgQWBBRmYbHoEnWP
bFMzRnlFFMxPxAgAGTAfBgNVHSMEGDAWgBQFwxq0S0N15KROepQV25HHvPqVazAO
BgNVHQ8BAf8EBAMCBeAwEwYDVR0lBAwwCgYIKwYBBQUHAwIwDQYJKoZIhvcNAQEL
BQADggEBAHBOMO2Rba1X6PyfeTeEdqB0vTtTzWSoXBpTwDCSryJ+uXOlCCfY7TJm
DMnmmwzo2j6pXWeGBYYu6llRtSa+zOsd+tu4LMUlt4qM2XyhsfYFidqg0UrZgZdp
wqjtLGlENAybJ+GF6mqKP6HK5IoZBrIi8/A7AWngkNlIHWJ0g3dCuo+OVwM3Hulq
kAMh8Ke65hQj5+oEEtUFhPe84f0JXG0qn1wzteCBPMGWdcE1CgsLY9zHpD9l4AGH
ToMVW+4LwRaC8YhSyIR3BtZplQDzifZ/XiGTc2w+yOuOz2HmYOsSlPjSLugBYuOR
6aizeKYpfgi3kR1lfB2waJ2FxGLDe+s=
-----END CERTIFICATE-----
