Certificate:
    Data:
        Version: 3 (0x2)
        Serial Number: 4096 (0x1000)
        Signature Algorithm: sha256WithRSAEncryption
        Issuer: C=DE, ST=Baden-Wuerttemberg, L=Ulm, O=BMW Car IT GmbH, OU=HU Security, CN=MoCOCrW CRL Test Root CA
        Validity
            Not Before: Jan 17 12:47:17 2020 GMT
            Not After : Dec 24 12:47:17 2119 GMT
        Subject: C=DE, ST=Baden-Wuerttemberg, O=BMW Car IT GmbH, OU=HU Security, CN=MoCOCrW CRL Test Intermediate CA
        Subject Public Key Info:
            Public Key Algorithm: rsaEncryption
                RSA Public-Key: (4096 bit)
                Modulus:
                    00:c0:b1:d7:15:7a:0f:34:7e:64:44:6a:6a:3f:e3:
                    0a:34:be:4b:eb:31:63:8c:47:15:25:f3:53:a8:b2:
                    48:80:f8:7d:17:0a:03:31:c1:29:0e:ed:d5:80:18:
                    18:07:1b:28:4f:c3:d6:ce:65:de:78:da:51:46:27:
                    c9:c0:47:b0:4a:bb:bd:52:4f:9e:92:e2:04:1f:9c:
                    47:28:25:29:d7:dd:6a:cd:59:9b:10:cd:74:97:66:
                    07:75:f4:de:a5:a1:4a:02:2e:01:ca:d8:41:42:23:
                    38:78:b7:5d:89:48:2f:10:28:fe:b9:ad:42:d9:6e:
                    1c:a5:b9:fa:71:19:36:d2:63:a3:b7:e6:d2:ba:d8:
                    e5:f3:83:92:0d:22:05:56:5a:67:be:08:fb:ad:9a:
                    27:e1:df:6b:85:0f:5e:f8:1a:df:e8:af:98:fb:c9:
                    a1:76:ec:ff:03:50:72:d8:91:53:e9:03:db:b3:ef:
                    c4:97:31:a2:55:e4:2f:29:88:0c:d5:9f:ed:2b:01:
                    ba:1b:94:1e:24:2f:2f:3a:9c:11:82:91:5c:bd:55:
                    1b:b7:6d:50:5c:fe:04:6c:be:e2:d3:37:6e:b6:99:
                    25:1d:07:46:f8:1d:dc:b3:98:54:43:45:8a:37:72:
                    f2:75:a6:1a:ff:64:ce:c8:23:88:c1:5e:6b:71:b2:
                    81:5b:4e:cd:77:ce:43:16:6f:0d:78:cf:7f:f5:20:
                    34:d7:c6:9b:c1:26:cf:d1:89:19:64:bd:f3:04:4c:
                    25:87:ee:48:46:d8:52:e3:2c:e1:8a:4a:bd:db:16:
                    e2:78:78:f1:77:bc:c5:73:70:fe:f4:36:24:ba:c2:
                    4b:97:ce:a1:c8:55:9c:5d:92:ee:84:30:57:f0:35:
                    d4:a0:af:d6:fc:f5:f6:20:ec:c5:a8:cc:8d:9e:7c:
                    01:4c:6c:77:d9:bc:c7:e4:1b:31:02:d2:8c:46:58:
                    18:ea:ce:14:26:ee:2a:88:0a:d6:7b:d2:1c:55:01:
                    dc:1c:fa:df:e5:67:6b:75:0a:0c:8f:05:e5:4b:37:
                    cc:51:2b:b2:71:e3:1f:57:37:f8:f3:e9:ae:5f:df:
                    ce:0a:bb:fc:c3:b7:07:75:15:db:b1:77:80:f0:90:
                    31:bd:5c:bb:5d:09:5d:17:25:20:c7:d2:dc:7c:1a:
                    23:99:a1:63:19:d6:79:00:01:10:ef:18:0f:ff:e9:
                    6a:17:45:90:c4:ba:9b:f0:1e:c3:b7:69:84:93:52:
                    5c:30:b7:2e:d5:9c:85:a5:12:96:1a:49:74:b0:14:
                    fe:ff:58:e1:a9:73:71:dc:3d:84:80:d0:ed:ca:2a:
                    aa:2f:9c:02:59:d1:6a:ae:b5:3e:b9:de:32:fa:81:
                    05:c0:1b
                Exponent: 65537 (0x10001)
        X509v3 extensions:
            X509v3 Subject Key Identifier: 
                32:83:6F:18:E1:93:2F:80:12:93:24:E3:A8:61:73:B0:D9:FA:5B:D1
            X509v3 Authority Key Identifier: 
                keyid:CD:2C:28:95:0A:AF:A1:BD:22:E5:6C:AA:9D:04:F4:A5:2B:62:7A:C7

            X509v3 Basic Constraints: critical
                CA:TRUE
            X509v3 Key Usage: critical
                Digital Signature, Certificate Sign, CRL Sign
    Signature Algorithm: sha256WithRSAEncryption
         12:e8:51:f5:56:0a:25:bc:1d:fb:4f:de:0a:63:40:26:80:3a:
         34:69:4d:be:54:57:6d:ab:e3:d1:8e:49:6d:92:44:e6:36:99:
         1e:dc:4f:90:3a:77:8f:ae:67:e0:f3:5c:e7:d5:f7:50:cd:30:
         38:fe:b7:35:58:35:a4:15:3d:e2:4f:77:b8:d8:44:4e:82:d7:
         fd:03:f7:16:bf:3b:b5:3a:79:34:29:be:d3:e0:5f:0f:3c:2d:
         5c:68:27:fd:d5:d6:7c:4f:e9:92:03:3a:72:75:8d:96:34:e5:
         1d:2b:f3:04:37:7d:e0:16:3e:cb:d5:d4:b7:24:af:69:a1:46:
         ce:e2:c6:84:e6:d9:92:89:a2:8d:91:1c:70:47:7f:3f:30:64:
         37:f7:da:3f:58:38:d1:fe:9d:92:64:d2:0e:fa:99:98:88:47:
         af:f2:00:13:08:b0:b8:55:3f:f7:74:a1:f6:e5:3e:55:e8:0c:
         ee:0e:96:7f:37:6e:3a:ec:18:73:a5:4d:93:06:99:9e:02:d7:
         0a:53:06:2f:a2:f7:f6:35:55:49:7f:65:a9:11:2e:d7:7a:c1:
         1a:23:c9:fe:b0:ea:b9:35:a4:13:8e:95:c6:40:42:4d:57:73:
         2f:23:83:97:5e:b2:23:5b:60:1a:0c:f0:a4:af:c7:d1:27:49:
         dd:76:cc:fe:38:a0:48:4a:ef:71:9e:b6:b8:0c:0d:02:93:c7:
         4d:be:26:d7:26:d4:01:c4:0a:1c:20:69:f3:51:48:d0:e8:46:
         03:d8:67:35:00:ff:c4:fe:90:69:5a:92:6b:5f:ce:70:86:bd:
         09:88:37:4b:10:7b:2b:56:bf:d5:34:86:c8:16:35:fa:b3:c4:
         3c:a2:f1:00:74:1e:ea:79:22:de:a2:e0:2f:2a:20:6b:12:bf:
         7d:9b:ab:ee:02:29:8a:ce:12:b1:6b:1f:4a:7a:e8:4c:da:90:
         0c:e5:ee:d8:3d:e7:24:b0:64:24:a6:b8:3d:22:68:ef:6e:6e:
         8d:83:ec:88:1e:5d:dd:ac:46:ab:41:4e:36:9b:09:be:4c:dd:
         8e:92:a9:7c:b8:97:d7:8c:d2:bf:6c:91:a2:bc:3c:54:49:15:
         78:03:80:58:89:4a:13:01:c7:5a:5c:f9:d9:3a:4f:38:15:88:
         28:e1:67:84:53:97:24:e2:3c:89:5c:1d:89:00:08:71:ec:a9:
         59:f2:69:f4:55:e8:eb:29:58:bc:21:0f:c7:83:c5:3b:e5:d1:
         ec:98:25:7b:f9:fc:4e:2a:a9:4b:17:ff:55:61:00:59:74:cf:
         71:ae:ae:0b:9d:ec:e5:0a:f0:cd:05:12:a4:d2:c2:e4:04:8d:
         cc:5d:8d:1d:d2:18:00:ef
-----BEGIN CERTIFICATE-----
MIIF8zCCA9ugAwIBAgICEAAwDQYJKoZIhvcNAQELBQAwgYsxCzAJBgNVBAYTAkRF
MRswGQYDVQQIDBJCYWRlbi1XdWVydHRlbWJlcmcxDDAKBgNVBAcMA1VsbTEYMBYG
A1UECgwPQk1XIENhciBJVCBHbWJIMRQwEgYDVQQLDAtIVSBTZWN1cml0eTEhMB8G
A1UEAwwYTW9DT0NyVyBDUkwgVGVzdCBSb290IENBMCAXDTIwMDExNzEyNDcxN1oY
DzIxMTkxMjI0MTI0NzE3WjCBhTELMAkGA1UEBhMCREUxGzAZBgNVBAgMEkJhZGVu
LVd1ZXJ0dGVtYmVyZzEYMBYGA1UECgwPQk1XIENhciBJVCBHbWJIMRQwEgYDVQQL
DAtIVSBTZWN1cml0eTEpMCcGA1UEAwwgTW9DT0NyVyBDUkwgVGVzdCBJbnRlcm1l
ZGlhdGUgQ0EwggIiMA0GCSqGSIb3DQEBAQUAA4ICDwAwggIKAoICAQDAsdcVeg80
fmREamo/4wo0vkvrMWOMRxUl81OoskiA+H0XCgMxwSkO7dWAGBgHGyhPw9bOZd54
2lFGJ8nAR7BKu71ST56S4gQfnEcoJSnX3WrNWZsQzXSXZgd19N6loUoCLgHK2EFC
Izh4t12JSC8QKP65rULZbhylufpxGTbSY6O35tK62OXzg5INIgVWWme+CPutmifh
32uFD174Gt/or5j7yaF27P8DUHLYkVPpA9uz78SXMaJV5C8piAzVn+0rAboblB4k
Ly86nBGCkVy9VRu3bVBc/gRsvuLTN262mSUdB0b4HdyzmFRDRYo3cvJ1phr/ZM7I
I4jBXmtxsoFbTs13zkMWbw14z3/1IDTXxpvBJs/RiRlkvfMETCWH7khG2FLjLOGK
Sr3bFuJ4ePF3vMVzcP70NiS6wkuXzqHIVZxdku6EMFfwNdSgr9b89fYg7MWozI2e
fAFMbHfZvMfkGzEC0oxGWBjqzhQm7iqICtZ70hxVAdwc+t/lZ2t1CgyPBeVLN8xR
K7Jx4x9XN/jz6a5f384Ku/zDtwd1Fduxd4DwkDG9XLtdCV0XJSDH0tx8GiOZoWMZ
1nkAARDvGA//6WoXRZDEupvwHsO3aYSTUlwwty7VnIWlEpYaSXSwFP7/WOGpc3Hc
PYSA0O3KKqovnAJZ0WqutT653jL6gQXAGwIDAQABo2MwYTAdBgNVHQ4EFgQUMoNv
GOGTL4ASkyTjqGFzsNn6W9EwHwYDVR0jBBgwFoAUzSwolQqvob0i5WyqnQT0pSti
escwDwYDVR0TAQH/BAUwAwEB/zAOBgNVHQ8BAf8EBAMCAYYwDQYJKoZIhvcNAQEL
BQADggIBABLoUfVWCiW8HftP3gpjQCaAOjRpTb5UV22r49GOSW2SROY2mR7cT5A6
d4+uZ+DzXOfV91DNMDj+tzVYNaQVPeJPd7jYRE6C1/0D9xa/O7U6eTQpvtPgXw88
LVxoJ/3V1nxP6ZIDOnJ1jZY05R0r8wQ3feAWPsvV1Lckr2mhRs7ixoTm2ZKJoo2R
HHBHfz8wZDf32j9YONH+nZJk0g76mZiIR6/yABMIsLhVP/d0ofblPlXoDO4Oln83
bjrsGHOlTZMGmZ4C1wpTBi+i9/Y1VUl/ZakRLtd6wRojyf6w6rk1pBOOlcZAQk1X
cy8jg5desiNbYBoM8KSvx9EnSd12zP44oEhK73GetrgMDQKTx02+Jtcm1AHEChwg
afNRSNDoRgPYZzUA/8T+kGlakmtfznCGvQmIN0sQeytWv9U0hsgWNfqzxDyi8QB0
Hup5It6i4C8qIGsSv32bq+4CKYrOErFrH0p66EzakAzl7tg95ySwZCSmuD0iaO9u
bo2D7IgeXd2sRqtBTjabCb5M3Y6SqXy4l9eM0r9skaK8PFRJFXgDgFiJShMBx1pc
+dk6TzgViCjhZ4RTlyTiPIlcHYkACHHsqVnyafRV6OspWLwhD8eDxTvl0eyYJXv5
/E4qqUsX/1VhAFl0z3Gurgud7OUK8M0FEqTSwuQEjcxdjR3SGADv
-----END CERTIFICATE-----
