Certificate:
    Data:
        Version: 3 (0x2)
        Serial Number: 4096 (0x1000)
        Signature Algorithm: sha256WithRSAEncryption
        Issuer: C=DE, ST=Baden-Wuerttemberg, O=BMW Car IT GmbH, OU=HU Security, CN=MoCOCrW CRL Test Intermediate CA
        Validity
            Not Before: Jan 17 12:48:23 2020 GMT
            Not After : Dec 24 12:48:23 2119 GMT
        Subject: C=DE, ST=Baden-Wuerttemberg, O=BMW Car IT GmbH, OU=HU Security, CN=MoCOCrW CRL Test Intermediate Sub CA
        Subject Public Key Info:
            Public Key Algorithm: rsaEncryption
                RSA Public-Key: (4096 bit)
                Modulus:
                    00:a8:ce:c5:58:a8:28:e1:29:ef:6d:aa:c9:79:7b:
                    8c:b4:0a:88:91:8f:cb:b2:ae:38:e3:02:02:f9:6c:
                    c6:e0:26:a6:6b:66:97:72:43:4e:ca:b1:ec:5d:55:
                    2e:fe:bc:7b:e9:6a:f4:9a:b9:00:40:d9:73:e6:be:
                    e4:71:7b:37:21:97:8e:08:b9:1b:fe:3d:82:f3:28:
                    83:c8:b4:55:2e:3a:57:14:6c:2b:17:6a:23:32:db:
                    3d:fe:d7:b6:7a:5f:91:26:7a:9c:fb:43:3b:72:0c:
                    1b:8e:fd:07:f1:bd:7d:14:05:2b:40:61:ca:10:46:
                    7d:d7:74:38:5d:0f:83:42:14:05:f0:e3:0d:f3:46:
                    68:a0:ef:ab:6c:04:2d:86:3f:b5:68:bc:e3:85:09:
                    84:22:29:bc:83:05:83:9c:a7:a9:11:4c:d1:58:41:
                    0a:84:f3:3b:cc:5e:0d:77:9e:56:12:aa:53:ea:e6:
                    b7:f1:4e:8e:75:3b:53:02:42:93:c5:1c:8f:65:4d:
                    ba:a0:eb:f2:38:f5:f9:cd:22:0b:b4:51:fa:ba:2b:
                    4f:d9:e9:5c:2e:d1:dc:6e:91:0e:95:12:72:a0:f8:
                    e0:6a:76:d9:0b:88:41:76:a3:26:b8:1a:36:81:6d:
                    3c:d8:2a:b1:5e:5d:b0:2a:2c:35:82:af:76:93:1e:
                    76:ae:6e:3f:35:67:86:45:7e:94:b6:72:db:d7:ca:
                    19:39:e0:b2:c1:36:e9:2e:39:f9:a8:14:e1:10:be:
                    b1:f8:f9:56:ab:d3:bf:56:e9:22:30:76:d2:b0:e1:
                    21:d0:82:d1:a5:77:e1:d1:2a:cd:9b:c0:70:f5:4b:
                    fc:b2:75:3a:8c:b8:b9:62:a6:50:96:1b:12:ef:56:
                    e2:72:43:8b:df:3f:f2:0c:f7:bb:59:40:1c:66:29:
                    12:4e:f9:36:4b:59:4a:24:b3:48:fa:bf:4a:97:46:
                    8f:a2:74:0a:79:23:e9:8f:ba:5b:96:58:f3:80:42:
                    41:89:dc:8e:8e:d6:d5:43:6b:ea:7b:c9:1a:8f:f9:
                    eb:65:ca:3c:9a:7c:a7:99:2d:9f:e7:41:52:c2:94:
                    83:cf:d3:d5:30:9a:ca:fb:7f:85:d7:6e:46:17:38:
                    be:1b:53:fb:4a:07:67:67:83:c4:aa:4e:50:88:37:
                    9c:f9:b6:6c:03:b9:dc:d9:7e:41:ab:b8:f8:e0:7c:
                    d2:41:52:69:58:f5:e3:b1:bc:56:83:23:55:35:0f:
                    d9:ee:ba:af:fd:9b:bf:b8:0f:18:23:35:1e:cd:d7:
                    e9:b9:f1:c0:e4:54:67:15:16:01:7a:b6:76:1c:0f:
                    b9:ec:14:48:4d:ef:b3:05:b0:d2:39:f7:60:fe:3a:
                    1e:78:9d
                Exponent: 65537 (0x10001)
        X509v3 extensions:
            X509v3 Subject Key Identifier: 
                F0:20:4D:8E:26:02:EB:C4:24:5A:52:9F:90:58:76:18:4E:21:7D:10
            X509v3 Authority Key Identifier: 
                keyid:32:83:6F:18:E1:93:2F:80:12:93:24:E3:A8:61:73:B0:D9:FA:5B:D1

            X509v3 Basic Constraints: critical
                CA:TRUE, pathlen:0
            X509v3 Key Usage: critical
                Digital Signature, Certificate Sign, CRL Sign
    Signature Algorithm: sha256WithRSAEncryption
         5a:07:f1:10:8f:d5:ee:36:3a:fb:f6:68:60:1e:0e:f6:a5:ab:
         9e:7b:5b:4b:f1:b9:ff:10:a0:55:ea:fb:64:69:d2:35:9d:73:
         a4:00:52:6d:2b:47:60:ca:77:4f:62:63:40:ac:c9:49:06:25:
         a3:78:98:cb:04:28:d1:7b:a1:b5:5d:5b:21:72:0b:3e:42:e5:
         fb:0e:64:21:2f:8f:24:fb:66:fe:29:4d:8b:9b:f8:a9:45:76:
         45:9a:62:9a:4b:d9:25:12:7c:34:6a:e9:2a:aa:f2:73:a7:75:
         9e:ca:cd:4e:27:be:e1:36:81:b8:bc:46:97:2c:e8:1b:f3:cd:
         dd:b7:13:3d:3d:35:67:b9:67:09:ce:97:f1:82:cb:93:2e:03:
         00:39:6f:41:08:97:da:bc:54:ae:ee:2f:ce:c3:3f:d5:54:36:
         f5:de:87:67:07:ed:37:dd:87:fc:3a:d8:94:73:39:42:37:33:
         fa:05:02:e6:a8:73:8c:05:c7:d2:ee:d2:83:b1:68:ba:bd:26:
         4f:39:96:45:11:0e:ac:ff:05:5e:6b:26:e0:79:93:32:ef:ab:
         f4:ad:8d:7e:34:d3:0e:1a:e9:b1:1a:2f:93:77:39:5a:04:26:
         08:7e:b6:7c:5a:20:d1:5a:4d:b0:28:d8:ff:13:9b:88:9b:fb:
         9d:85:b6:76:56:94:2d:15:ca:07:bc:ba:76:09:8e:88:4b:63:
         a9:ab:bf:8c:69:e5:90:42:14:12:82:e0:0d:b4:97:50:ef:27:
         57:7a:bc:24:21:04:4d:36:c7:20:2a:c3:ad:92:63:e0:d5:91:
         65:8a:d1:5d:e3:93:17:9e:66:6b:47:ba:1f:26:03:11:61:30:
         4e:2f:b1:25:6a:e0:5b:6a:0a:1d:ef:b0:87:1d:89:60:31:bc:
         99:ea:a0:86:35:de:06:3a:91:59:57:23:da:8e:c6:3e:53:2a:
         a3:32:73:1c:8d:68:ff:81:9a:08:86:1a:f2:6d:76:40:c8:03:
         94:74:9e:e2:d3:ed:8f:47:76:4e:76:8b:d5:d7:26:a9:41:54:
         49:60:aa:5a:b1:18:b8:a3:69:3b:97:61:74:d6:3c:e7:98:2a:
         50:c3:30:ac:5b:55:e1:4d:ae:68:5f:a0:3a:3d:7c:57:84:71:
         4d:10:d2:e9:58:50:c6:cb:05:45:0b:16:12:a1:6d:0d:86:35:
         93:69:e2:d0:a0:98:de:ea:06:38:e5:c1:77:48:75:12:ff:b8:
         72:67:15:9d:ae:5b:d7:94:c1:32:6a:0b:73:bf:2c:fc:a7:cc:
         7a:e8:eb:fc:7f:21:59:a8:68:0e:c9:65:df:21:de:59:43:7f:
         0e:98:4f:ec:4e:5f:6c:9c
-----BEGIN CERTIFICATE-----
MIIF9DCCA9ygAwIBAgICEAAwDQYJKoZIhvcNAQELBQAwgYUxCzAJBgNVBAYTAkRF
MRswGQYDVQQIDBJCYWRlbi1XdWVydHRlbWJlcmcxGDAWBgNVBAoMD0JNVyBDYXIg
SVQgR21iSDEUMBIGA1UECwwLSFUgU2VjdXJpdHkxKTAnBgNVBAMMIE1vQ09Dclcg
Q1JMIFRlc3QgSW50ZXJtZWRpYXRlIENBMCAXDTIwMDExNzEyNDgyM1oYDzIxMTkx
MjI0MTI0ODIzWjCBiTELMAkGA1UEBhMCREUxGzAZBgNVBAgMEkJhZGVuLVd1ZXJ0
dGVtYmVyZzEYMBYGA1UECgwPQk1XIENhciBJVCBHbWJIMRQwEgYDVQQLDAtIVSBT
ZWN1cml0eTEtMCsGA1UEAwwkTW9DT0NyVyBDUkwgVGVzdCBJbnRlcm1lZGlhdGUg
U3ViIENBMIICIjANBgkqhkiG9w0BAQEFAAOCAg8AMIICCgKCAgEAqM7FWKgo4Snv
barJeXuMtAqIkY/Lsq444wIC+WzG4Cama2aXckNOyrHsXVUu/rx76Wr0mrkAQNlz
5r7kcXs3IZeOCLkb/j2C8yiDyLRVLjpXFGwrF2ojMts9/te2el+RJnqc+0M7cgwb
jv0H8b19FAUrQGHKEEZ913Q4XQ+DQhQF8OMN80ZooO+rbAQthj+1aLzjhQmEIim8
gwWDnKepEUzRWEEKhPM7zF4Nd55WEqpT6ua38U6OdTtTAkKTxRyPZU26oOvyOPX5
zSILtFH6uitP2elcLtHcbpEOlRJyoPjganbZC4hBdqMmuBo2gW082CqxXl2wKiw1
gq92kx52rm4/NWeGRX6UtnLb18oZOeCywTbpLjn5qBThEL6x+PlWq9O/VukiMHbS
sOEh0ILRpXfh0SrNm8Bw9Uv8snU6jLi5YqZQlhsS71bickOL3z/yDPe7WUAcZikS
Tvk2S1lKJLNI+r9Kl0aPonQKeSPpj7pblljzgEJBidyOjtbVQ2vqe8kaj/nrZco8
mnynmS2f50FSwpSDz9PVMJrK+3+F125GFzi+G1P7SgdnZ4PEqk5QiDec+bZsA7nc
2X5Bq7j44HzSQVJpWPXjsbxWgyNVNQ/Z7rqv/Zu/uA8YIzUezdfpufHA5FRnFRYB
erZ2HA+57BRITe+zBbDSOfdg/joeeJ0CAwEAAaNmMGQwHQYDVR0OBBYEFPAgTY4m
AuvEJFpSn5BYdhhOIX0QMB8GA1UdIwQYMBaAFDKDbxjhky+AEpMk46hhc7DZ+lvR
MBIGA1UdEwEB/wQIMAYBAf8CAQAwDgYDVR0PAQH/BAQDAgGGMA0GCSqGSIb3DQEB
CwUAA4ICAQBaB/EQj9XuNjr79mhgHg72pauee1tL8bn/EKBV6vtkadI1nXOkAFJt
K0dgyndPYmNArMlJBiWjeJjLBCjRe6G1XVshcgs+QuX7DmQhL48k+2b+KU2Lm/ip
RXZFmmKaS9klEnw0aukqqvJzp3Weys1OJ77hNoG4vEaXLOgb883dtxM9PTVnuWcJ
zpfxgsuTLgMAOW9BCJfavFSu7i/Owz/VVDb13odnB+033Yf8OtiUczlCNzP6BQLm
qHOMBcfS7tKDsWi6vSZPOZZFEQ6s/wVeaybgeZMy76v0rY1+NNMOGumxGi+Tdzla
BCYIfrZ8WiDRWk2wKNj/E5uIm/udhbZ2VpQtFcoHvLp2CY6IS2Opq7+MaeWQQhQS
guANtJdQ7ydXerwkIQRNNscgKsOtkmPg1ZFlitFd45MXnmZrR7ofJgMRYTBOL7El
auBbagod77CHHYlgMbyZ6qCGNd4GOpFZVyPajsY+UyqjMnMcjWj/gZoIhhrybXZA
yAOUdJ7i0+2PR3ZOdovV1yapQVRJYKpasRi4o2k7l2F01jznmCpQwzCsW1XhTa5o
X6A6PXxXhHFNENLpWFDGywVFCxYSoW0NhjWTaeLQoJje6gY45cF3SHUS/7hyZxWd
rlvXlMEyagtzvyz8p8x66Ov8fyFZqGgOyWXfId5ZQ38OmE/sTl9snA==
-----END CERTIFICATE-----
