Certificate:
    Data:
        Version: 3 (0x2)
        Serial Number: 4098 (0x1002)
        Signature Algorithm: sha256WithRSAEncryption
        Issuer: C=DE, ST=Baden-Wuerttemberg, O=BMW Car IT GmbH, OU=HU Security, CN=MoCOCrW CRL Test Intermediate CA
        Validity
            Not Before: Jan 17 16:19:05 2020 GMT
            Not After : Dec 24 16:19:05 2119 GMT
        Subject: C=DE, ST=Baden-Wuerttemberg, O=BMW Car IT GmbH, OU=HU Security, CN=MoCOCrW CRL Test Certificate 2
        Subject Public Key Info:
            Public Key Algorithm: rsaEncryption
                RSA Public-Key: (2048 bit)
                Modulus:
                    00:d1:e6:b9:46:ed:11:82:20:d1:ff:12:ae:bf:07:
                    a1:fd:4d:1a:d2:2c:7f:d9:fc:af:e5:0e:9f:21:ec:
                    0a:c1:d3:db:41:03:1a:22:06:a6:30:7c:3f:16:7e:
                    48:d6:76:f7:6c:1b:a5:9e:83:95:bc:a9:bb:5e:36:
                    19:b4:3a:30:0a:90:78:50:3d:c6:04:27:a3:20:5f:
                    d8:15:18:ca:15:4d:45:1e:2f:be:65:56:d1:c4:0d:
                    b5:41:b1:65:f0:df:e4:e6:ed:a4:c6:ae:10:74:13:
                    00:5b:d1:76:f2:0d:29:a8:8d:e3:bc:0b:69:c2:fa:
                    80:d5:c8:4d:f4:52:2d:2a:81:a6:7f:ce:5a:08:9e:
                    43:2f:b3:97:eb:8c:35:60:d2:e1:37:5c:c2:24:85:
                    85:35:ab:50:cd:0e:bb:30:d1:12:6c:4d:bd:9b:b2:
                    f0:6e:c8:4d:77:bc:91:ff:db:39:a6:c7:94:9d:b4:
                    25:62:68:3c:52:fc:f6:1e:0e:56:36:21:e5:56:da:
                    2f:d7:5a:b2:5f:ea:70:8b:47:7f:8b:70:88:72:8b:
                    6d:1b:f7:41:cc:0a:65:64:08:03:59:79:e2:52:e1:
                    14:61:66:04:04:89:06:00:6e:02:6f:1e:9a:10:89:
                    d7:ea:20:10:f0:d7:09:70:5d:c1:4f:64:5b:c0:05:
                    81:cf
                Exponent: 65537 (0x10001)
        X509v3 extensions:
            X509v3 Basic Constraints: 
                CA:FALSE
            Netscape Cert Type: 
                SSL Client
            Netscape Comment: 
                OpenSSL Generated Client Certificate
            X509v3 Subject Key Identifier: 
                5D:2A:CE:2E:60:22:9D:F6:67:25:9E:36:C6:23:8C:18:5B:A4:0E:A6
            X509v3 Authority Key Identifier: 
                keyid:32:83:6F:18:E1:93:2F:80:12:93:24:E3:A8:61:73:B0:D9:FA:5B:D1

            X509v3 Key Usage: critical
                Digital Signature, Non Repudiation, Key Encipherment
            X509v3 Extended Key Usage: 
                TLS Web Client Authentication
    Signature Algorithm: sha256WithRSAEncryption
         49:71:12:49:1a:cf:f6:c9:74:47:f2:14:7a:ab:fb:52:0f:f0:
         b6:e5:a1:a9:b7:de:ce:64:f3:18:45:bd:75:1d:41:d6:ab:b9:
         40:72:2a:37:0c:d4:51:c8:46:5d:59:91:56:83:ea:42:19:03:
         51:67:cf:9a:69:9b:00:51:bc:6f:f9:9b:68:e4:48:7a:08:bf:
         50:43:6e:ea:b5:a4:87:e4:8f:50:d7:b2:22:3e:62:83:01:cc:
         07:bc:20:34:f2:c7:cf:46:c8:17:27:24:8e:dc:38:3e:cc:71:
         94:0b:10:a6:ba:85:ce:a3:60:d1:6a:80:ce:71:fb:89:08:80:
         b7:2e:10:8b:5d:f8:f0:b8:2f:44:b9:dd:3e:2b:4a:a3:60:d1:
         23:72:29:aa:5a:1f:5c:71:ec:29:c2:30:a6:f2:70:c3:1c:36:
         de:e2:35:12:3d:eb:23:cb:68:0d:84:4f:df:88:ba:ee:c0:e4:
         70:37:e3:05:27:1a:c0:d8:11:9c:db:21:1c:28:3a:c0:ae:16:
         3d:a6:e5:11:b9:e5:7b:d3:f8:83:02:95:28:e8:e4:52:9a:9f:
         c7:08:13:9b:0e:fa:3c:a8:6a:fd:e6:11:d7:25:78:3d:0d:1d:
         60:2c:95:5e:1d:e9:c5:4b:b6:e1:9e:87:74:86:29:9b:3b:9b:
         29:ae:2d:63:a3:18:6d:c9:27:5d:34:8e:ba:43:a8:b0:7d:d5:
         b3:a8:04:43:43:ab:6d:9b:08:02:78:5f:5a:7c:39:9f:85:ba:
         c5:ae:3e:5e:62:97:71:66:c0:a0:1d:a9:65:17:b2:c9:b5:a8:
         a6:eb:d4:26:b3:dc:1d:df:7d:48:4a:30:9d:23:94:a7:f0:cc:
         fb:8a:26:65:a3:d0:73:6f:2b:4f:7c:be:8a:c9:56:3b:f8:80:
         40:3a:49:19:3b:2e:45:33:f5:32:26:26:c4:d6:da:82:69:bc:
         f2:20:ea:15:e2:fa:8c:9a:1b:9a:56:0a:fe:c4:46:c0:45:4c:
         01:f1:7a:c0:03:06:74:60:50:4d:da:ea:55:29:13:4d:34:7b:
         48:f2:35:b2:2d:5e:ce:65:86:73:cf:74:9e:f7:a1:ec:d3:40:
         ce:75:5f:42:cf:ab:be:49:0e:9d:20:d1:02:c7:14:eb:86:b6:
         83:5c:dd:25:68:3c:d6:ec:3a:6f:4c:fd:18:bd:a8:e1:a4:8b:
         ec:49:9e:15:e5:55:be:58:aa:4c:2e:b4:c7:b5:eb:8d:e9:e5:
         e4:a4:6f:23:56:87:3b:df:5e:7c:e9:64:09:16:6e:8f:f8:0b:
         0c:bc:c9:86:17:2d:3e:0d:9b:17:2d:cb:c2:36:8f:bb:56:db:
         13:0b:63:d9:53:45:b1:23
-----BEGIN CERTIFICATE-----
MIIFRDCCAyygAwIBAgICEAIwDQYJKoZIhvcNAQELBQAwgYUxCzAJBgNVBAYTAkRF
MRswGQYDVQQIDBJCYWRlbi1XdWVydHRlbWJlcmcxGDAWBgNVBAoMD0JNVyBDYXIg
SVQgR21iSDEUMBIGA1UECwwLSFUgU2VjdXJpdHkxKTAnBgNVBAMMIE1vQ09Dclcg
Q1JMIFRlc3QgSW50ZXJtZWRpYXRlIENBMCAXDTIwMDExNzE2MTkwNVoYDzIxMTkx
MjI0MTYxOTA1WjCBgzELMAkGA1UEBhMCREUxGzAZBgNVBAgMEkJhZGVuLVd1ZXJ0
dGVtYmVyZzEYMBYGA1UECgwPQk1XIENhciBJVCBHbWJIMRQwEgYDVQQLDAtIVSBT
ZWN1cml0eTEnMCUGA1UEAwweTW9DT0NyVyBDUkwgVGVzdCBDZXJ0aWZpY2F0ZSAy
MIIBIjANBgkqhkiG9w0BAQEFAAOCAQ8AMIIBCgKCAQEA0ea5Ru0RgiDR/xKuvweh
/U0a0ix/2fyv5Q6fIewKwdPbQQMaIgamMHw/Fn5I1nb3bBulnoOVvKm7XjYZtDow
CpB4UD3GBCejIF/YFRjKFU1FHi++ZVbRxA21QbFl8N/k5u2kxq4QdBMAW9F28g0p
qI3jvAtpwvqA1chN9FItKoGmf85aCJ5DL7OX64w1YNLhN1zCJIWFNatQzQ67MNES
bE29m7LwbshNd7yR/9s5pseUnbQlYmg8Uvz2Hg5WNiHlVtov11qyX+pwi0d/i3CI
cottG/dBzAplZAgDWXniUuEUYWYEBIkGAG4Cbx6aEInX6iAQ8NcJcF3BT2RbwAWB
zwIDAQABo4G7MIG4MAkGA1UdEwQCMAAwEQYJYIZIAYb4QgEBBAQDAgeAMDMGCWCG
SAGG+EIBDQQmFiRPcGVuU1NMIEdlbmVyYXRlZCBDbGllbnQgQ2VydGlmaWNhdGUw
HQYDVR0OBBYEFF0qzi5gIp32ZyWeNsYjjBhbpA6mMB8GA1UdIwQYMBaAFDKDbxjh
ky+AEpMk46hhc7DZ+lvRMA4GA1UdDwEB/wQEAwIF4DATBgNVHSUEDDAKBggrBgEF
BQcDAjANBgkqhkiG9w0BAQsFAAOCAgEASXESSRrP9sl0R/IUeqv7Ug/wtuWhqbfe
zmTzGEW9dR1B1qu5QHIqNwzUUchGXVmRVoPqQhkDUWfPmmmbAFG8b/mbaORIegi/
UENu6rWkh+SPUNeyIj5igwHMB7wgNPLHz0bIFyckjtw4PsxxlAsQprqFzqNg0WqA
znH7iQiAty4Qi1348LgvRLndPitKo2DRI3IpqlofXHHsKcIwpvJwwxw23uI1Ej3r
I8toDYRP34i67sDkcDfjBScawNgRnNshHCg6wK4WPablEbnle9P4gwKVKOjkUpqf
xwgTmw76PKhq/eYR1yV4PQ0dYCyVXh3pxUu24Z6HdIYpmzubKa4tY6MYbcknXTSO
ukOosH3Vs6gEQ0OrbZsIAnhfWnw5n4W6xa4+XmKXcWbAoB2pZReyybWopuvUJrPc
Hd99SEownSOUp/DM+4omZaPQc28rT3y+islWO/iAQDpJGTsuRTP1MiYmxNbagmm8
8iDqFeL6jJobmlYK/sRGwEVMAfF6wAMGdGBQTdrqVSkTTTR7SPI1si1ezmWGc890
nveh7NNAznVfQs+rvkkOnSDRAscU64a2g1zdJWg81uw6b0z9GL2o4aSL7EmeFeVV
vliqTC60x7Xrjenl5KRvI1aHO99efOlkCRZuj/gLDLzJhhctPg2bFy3LwjaPu1bb
Ewtj2VNFsSM=
-----END CERTIFICATE-----
