Certificate:
    Data:
        Version: 3 (0x2)
        Serial Number: 4098 (0x1002)
    Signature Algorithm: ecdsa-with-SHA256
        Issuer: C=PT, ST=Porto, L=Porto, O=Internet Widgits Pty Ltd, CN=A
        Validity
            Not Before: Jan  1 00:00:00 2010 GMT
            Not After : Jan  1 00:00:00 2011 GMT
        Subject: C=PT, ST=Lisbon, L=Lisbon, O=Internet Widgits Pty Ltd, CN=B
        Subject Public Key Info:
            Public Key Algorithm: id-ecPublicKey
                Public-Key: (407 bit)
                pub: 
                    04:00:23:af:80:87:3e:3f:e9:ca:6f:57:19:87:48:
                    a4:86:11:bb:cf:e5:9b:18:98:af:04:cf:7b:1f:ef:
                    0f:76:26:62:a3:86:64:f0:fe:b9:f4:e2:ed:88:68:
                    74:11:9f:f1:1b:b6:01:50:01:d4:9e:9d:e9:90:38:
                    f9:fe:36:7a:b9:f8:5b:88:df:7a:ce:95:df:f3:7b:
                    ef:b6:a2:35:36:17:fd:12:3d:2b:03:25:6c:e6:fa:
                    52:8e:9f:0f:f7:b2:83:36:e4:ba:6e:d0:b1:20:d2
                ASN1 OID: sect409k1
                NIST CURVE: K-409
        X509v3 extensions:
            X509v3 Subject Key Identifier: 
                82:73:7E:00:31:85:95:D1:FC:CF:8C:C9:ED:B9:9B:A6:83:CB:40:4A
            X509v3 Authority Key Identifier: 
                keyid:6D:AD:0F:ED:F1:E7:98:B7:A7:F4:76:28:20:B0:81:C2:9D:35:5F:70

            X509v3 Basic Constraints: critical
                CA:TRUE, pathlen:0
            X509v3 Key Usage: critical
                Digital Signature, Certificate Sign, CRL Sign
    Signature Algorithm: ecdsa-with-SHA256
         30:6a:02:33:50:e6:f3:9f:e7:b4:57:1d:4f:93:d1:bd:a7:e8:
         3e:f5:4a:e3:40:ab:e8:15:60:07:5d:73:75:40:09:f6:0d:18:
         c5:30:41:2f:6d:6f:22:d6:f9:c6:ed:52:7e:82:45:5e:0f:e5:
         93:02:33:12:9c:62:87:10:a6:26:51:c6:a3:f4:e4:24:c2:94:
         dd:6e:90:13:4d:d6:7e:be:fc:03:9e:bc:9a:cd:3d:05:6a:8d:
         f6:a2:c2:c0:ce:b8:d2:41:03:c8:af:d8:46:72:2a:2e:db:52
-----BEGIN CERTIFICATE-----
MIICXjCCAd+gAwIBAgICEAIwCgYIKoZIzj0EAwIwXDELMAkGA1UEBhMCUFQxDjAM
BgNVBAgMBVBvcnRvMQ4wDAYDVQQHDAVQb3J0bzEhMB8GA1UECgwYSW50ZXJuZXQg
V2lkZ2l0cyBQdHkgTHRkMQowCAYDVQQDDAFBMCIYDzIwMTAwMTAxMDAwMDAwWhgP
MjAxMTAxMDEwMDAwMDBaMF4xCzAJBgNVBAYTAlBUMQ8wDQYDVQQIDAZMaXNib24x
DzANBgNVBAcMBkxpc2JvbjEhMB8GA1UECgwYSW50ZXJuZXQgV2lkZ2l0cyBQdHkg
THRkMQowCAYDVQQDDAFCMH4wEAYHKoZIzj0CAQYFK4EEACQDagAEACOvgIc+P+nK
b1cZh0ikhhG7z+WbGJivBM97H+8PdiZio4Zk8P659OLtiGh0EZ/xG7YBUAHUnp3p
kDj5/jZ6ufhbiN96zpXf83vvtqI1Nhf9Ej0rAyVs5vpSjp8P97KDNuS6btCxINKj
ZjBkMB0GA1UdDgQWBBSCc34AMYWV0fzPjMntuZumg8tASjAfBgNVHSMEGDAWgBRt
rQ/t8eeYt6f0diggsIHCnTVfcDASBgNVHRMBAf8ECDAGAQH/AgEAMA4GA1UdDwEB
/wQEAwIBhjAKBggqhkjOPQQDAgNtADBqAjNQ5vOf57RXHU+T0b2n6D71SuNAq+gV
YAddc3VACfYNGMUwQS9tbyLW+cbtUn6CRV4P5ZMCMxKcYocQpiZRxqP05CTClN1u
kBNN1n6+/AOevJrNPQVqjfaiwsDOuNJBA8iv2EZyKi7bUg==
-----END CERTIFICATE-----
