Certificate:
    Data:
        Version: 3 (0x2)
        Serial Number: 4096 (0x1000)
    Signature Algorithm: ecdsa-with-SHA256
        Issuer: C=PT, ST=Porto, L=Porto, O=Internet Widgits Pty Ltd, CN=A
        Validity
            Not Before: Jan  1 00:00:00 2010 GMT
            Not After : Jan  1 00:00:00 2045 GMT
        Subject: C=PT, ST=Lisbon, L=Lisbon, O=Internet Widgits Pty Ltd, CN=B
        Subject Public Key Info:
            Public Key Algorithm: id-ecPublicKey
                Public-Key: (407 bit)
                pub: 
                    04:00:23:af:80:87:3e:3f:e9:ca:6f:57:19:87:48:
                    a4:86:11:bb:cf:e5:9b:18:98:af:04:cf:7b:1f:ef:
                    0f:76:26:62:a3:86:64:f0:fe:b9:f4:e2:ed:88:68:
                    74:11:9f:f1:1b:b6:01:50:01:d4:9e:9d:e9:90:38:
                    f9:fe:36:7a:b9:f8:5b:88:df:7a:ce:95:df:f3:7b:
                    ef:b6:a2:35:36:17:fd:12:3d:2b:03:25:6c:e6:fa:
                    52:8e:9f:0f:f7:b2:83:36:e4:ba:6e:d0:b1:20:d2
                ASN1 OID: sect409k1
                NIST CURVE: K-409
        X509v3 extensions:
            X509v3 Subject Key Identifier: 
                82:73:7E:00:31:85:95:D1:FC:CF:8C:C9:ED:B9:9B:A6:83:CB:40:4A
            X509v3 Authority Key Identifier: 
                keyid:6D:AD:0F:ED:F1:E7:98:B7:A7:F4:76:28:20:B0:81:C2:9D:35:5F:70

            X509v3 Basic Constraints: critical
                CA:TRUE, pathlen:0
            X509v3 Key Usage: critical
                Digital Signature, Certificate Sign, CRL Sign
    Signature Algorithm: ecdsa-with-SHA256
         30:6a:02:33:43:85:2d:34:3f:96:6a:4a:c2:b3:3f:f4:e0:6a:
         13:bd:47:9d:e1:b0:4b:25:b1:ca:03:10:61:35:ed:66:20:6d:
         8f:ea:3f:37:2b:1f:07:25:e7:45:18:b5:e0:d2:d7:31:c6:29:
         2f:02:33:2f:75:87:b3:c0:a2:a4:e4:8f:89:3d:ff:db:94:80:
         3a:3c:56:a5:5e:36:b6:67:40:d8:e5:aa:fa:83:b9:69:64:b8:
         c1:09:0d:fc:59:14:63:61:2c:d5:d4:25:0d:d6:19:e4:76:9b
-----BEGIN CERTIFICATE-----
MIICXjCCAd+gAwIBAgICEAAwCgYIKoZIzj0EAwIwXDELMAkGA1UEBhMCUFQxDjAM
BgNVBAgMBVBvcnRvMQ4wDAYDVQQHDAVQb3J0bzEhMB8GA1UECgwYSW50ZXJuZXQg
V2lkZ2l0cyBQdHkgTHRkMQowCAYDVQQDDAFBMCIYDzIwMTAwMTAxMDAwMDAwWhgP
MjA0NTAxMDEwMDAwMDBaMF4xCzAJBgNVBAYTAlBUMQ8wDQYDVQQIDAZMaXNib24x
DzANBgNVBAcMBkxpc2JvbjEhMB8GA1UECgwYSW50ZXJuZXQgV2lkZ2l0cyBQdHkg
THRkMQowCAYDVQQDDAFCMH4wEAYHKoZIzj0CAQYFK4EEACQDagAEACOvgIc+P+nK
b1cZh0ikhhG7z+WbGJivBM97H+8PdiZio4Zk8P659OLtiGh0EZ/xG7YBUAHUnp3p
kDj5/jZ6ufhbiN96zpXf83vvtqI1Nhf9Ej0rAyVs5vpSjp8P97KDNuS6btCxINKj
ZjBkMB0GA1UdDgQWBBSCc34AMYWV0fzPjMntuZumg8tASjAfBgNVHSMEGDAWgBRt
rQ/t8eeYt6f0diggsIHCnTVfcDASBgNVHRMBAf8ECDAGAQH/AgEAMA4GA1UdDwEB
/wQEAwIBhjAKBggqhkjOPQQDAgNtADBqAjNDhS00P5ZqSsKzP/TgahO9R53hsEsl
scoDEGE17WYgbY/qPzcrHwcl50UYteDS1zHGKS8CMy91h7PAoqTkj4k9/9uUgDo8
VqVeNrZnQNjlqvqDuWlkuMEJDfxZFGNhLNXUJQ3WGeR2mw==
-----END CERTIFICATE-----
