Certificate:
    Data:
        Version: 3 (0x2)
        Serial Number: 4097 (0x1001)
    Signature Algorithm: ecdsa-with-SHA256
        Issuer: C=PT, ST=Lisbon, L=Lisbon, O=Internet Widgits Pty Ltd, CN=B
        Validity
            Not Before: Jan  1 00:00:00 2010 GMT
            Not After : Jan  1 00:00:00 2045 GMT
        Subject: C=DE, ST=Munich, L=Munich, O=Internet Widgits Pty Ltd, CN=C
        Subject Public Key Info:
            Public Key Algorithm: id-ecPublicKey
                Public-Key: (407 bit)
                pub: 
                    04:00:11:8e:a1:e6:85:ec:55:f9:54:1d:09:14:42:
                    c8:50:f3:be:f1:c0:f7:2e:69:62:a0:94:7d:72:45:
                    21:6c:f5:21:c7:36:b8:6d:f9:54:41:85:ce:b8:b1:
                    5a:67:72:e7:71:5b:05:ec:00:f2:91:6c:85:72:6d:
                    a8:43:89:8f:33:4b:29:e8:3f:16:50:19:1b:a8:6e:
                    2d:ed:0d:91:3f:d0:99:ac:61:fb:85:37:1d:10:3c:
                    ba:2e:01:e4:0e:d8:cb:1b:77:8c:3f:04:a0:4e:15
                ASN1 OID: sect409k1
                NIST CURVE: K-409
        X509v3 extensions:
            X509v3 Basic Constraints: 
                CA:FALSE
            Netscape Cert Type: 
                SSL Client
            Netscape Comment: 
                OpenSSL Generated Client Certificate
            X509v3 Subject Key Identifier: 
                30:D6:A6:81:C8:1F:98:CA:FC:F4:EB:FE:4F:00:B6:80:6A:8F:DF:FD
            X509v3 Authority Key Identifier: 
                keyid:82:73:7E:00:31:85:95:D1:FC:CF:8C:C9:ED:B9:9B:A6:83:CB:40:4A

            X509v3 Key Usage: critical
                Digital Signature, Non Repudiation, Key Encipherment
            X509v3 Extended Key Usage: 
                TLS Web Client Authentication
    Signature Algorithm: ecdsa-with-SHA256
         30:6a:02:33:72:97:9e:01:fd:a7:fd:f5:8b:cd:e4:55:8d:7e:
         d1:fb:fa:16:b8:1e:8e:93:33:ab:1c:8d:14:b1:52:d3:18:3a:
         77:0c:87:c1:d2:a7:33:e2:10:9d:d8:1d:92:5c:04:b6:19:ca:
         e9:02:33:2f:55:b7:b0:ad:6b:b0:26:15:6f:82:39:70:85:dc:
         e9:3b:a0:12:eb:9c:f3:bb:01:5b:ff:fd:65:5c:0c:b2:9b:08:
         7b:b3:eb:4d:86:ad:fa:ab:18:8d:2a:be:62:e0:39:dc:56:a2
-----BEGIN CERTIFICATE-----
MIICtjCCAjegAwIBAgICEAEwCgYIKoZIzj0EAwIwXjELMAkGA1UEBhMCUFQxDzAN
BgNVBAgMBkxpc2JvbjEPMA0GA1UEBwwGTGlzYm9uMSEwHwYDVQQKDBhJbnRlcm5l
dCBXaWRnaXRzIFB0eSBMdGQxCjAIBgNVBAMMAUIwIhgPMjAxMDAxMDEwMDAwMDBa
GA8yMDQ1MDEwMTAwMDAwMFowXjELMAkGA1UEBhMCREUxDzANBgNVBAgMBk11bmlj
aDEPMA0GA1UEBwwGTXVuaWNoMSEwHwYDVQQKDBhJbnRlcm5ldCBXaWRnaXRzIFB0
eSBMdGQxCjAIBgNVBAMMAUMwfjAQBgcqhkjOPQIBBgUrgQQAJANqAAQAEY6h5oXs
VflUHQkUQshQ877xwPcuaWKglH1yRSFs9SHHNrht+VRBhc64sVpncudxWwXsAPKR
bIVybahDiY8zSynoPxZQGRuobi3tDZE/0JmsYfuFNx0QPLouAeQO2Msbd4w/BKBO
FaOBuzCBuDAJBgNVHRMEAjAAMBEGCWCGSAGG+EIBAQQEAwIHgDAzBglghkgBhvhC
AQ0EJhYkT3BlblNTTCBHZW5lcmF0ZWQgQ2xpZW50IENlcnRpZmljYXRlMB0GA1Ud
DgQWBBQw1qaByB+Yyvz06/5PALaAao/f/TAfBgNVHSMEGDAWgBSCc34AMYWV0fzP
jMntuZumg8tASjAOBgNVHQ8BAf8EBAMCBeAwEwYDVR0lBAwwCgYIKwYBBQUHAwIw
CgYIKoZIzj0EAwIDbQAwagIzcpeeAf2n/fWLzeRVjX7R+/oWuB6OkzOrHI0UsVLT
GDp3DIfB0qcz4hCd2B2SXAS2GcrpAjMvVbewrWuwJhVvgjlwhdzpO6AS65zzuwFb
//1lXAyymwh7s+tNhq36qxiNKr5i4DncVqI=
-----END CERTIFICATE-----
