Certificate:
    Data:
        Version: 3 (0x2)
        Serial Number: 3 (0x3)
    Signature Algorithm: sha1WithRSAEncryption
        Issuer: CN=CRL Sub CA 1, C=DE, OU=BMW Car IT, O=BMW
        Validity
            Not Before: Jan 16 14:59:32 2018 GMT
            Not After : Jan 16 14:59:32 2020 GMT
        Subject: CN=BMW Certificate 3.1.2, ST=Some-State, C=DE, O=BMW, OU=BMW Car IT
        Subject Public Key Info:
            Public Key Algorithm: rsaEncryption
                Public-Key: (2048 bit)
                Modulus:
                    00:d6:62:be:0c:da:87:32:5c:39:6d:1c:4f:96:e0:
                    88:ba:56:5c:18:24:59:4f:e9:25:e7:3c:ee:b8:c9:
                    03:e4:23:51:da:a7:c2:ea:7f:9d:d7:af:bb:aa:ed:
                    f6:31:94:e5:52:72:6e:72:46:ca:61:44:d8:22:f1:
                    db:e4:6c:5e:72:4f:2c:88:52:ab:81:7c:81:7c:c3:
                    4a:98:29:b8:ef:64:10:2d:92:79:a1:15:b1:4e:b1:
                    ec:ad:43:8d:07:9b:8c:54:67:df:43:bd:47:83:dc:
                    a5:a5:5e:e7:97:8a:e5:34:71:71:ea:e8:c9:5c:de:
                    0b:16:6a:d0:da:f8:57:37:7e:4d:a9:cb:0b:c5:63:
                    bc:a7:5e:ab:b2:58:2c:50:02:fb:b5:15:a2:9b:f5:
                    12:7a:10:25:89:a4:f1:cc:68:74:43:81:0d:bb:ef:
                    eb:59:9b:54:54:15:19:b2:f2:c3:4c:69:46:4f:4c:
                    ca:75:c3:89:44:aa:99:48:6d:11:8b:ab:3b:4e:da:
                    63:af:24:05:c1:4b:60:88:a7:c5:24:80:3f:3a:78:
                    6b:cf:7c:d2:ea:8b:f8:90:03:77:1f:3f:5a:b4:0d:
                    88:0a:f8:fd:dc:f2:f1:ee:45:0a:a0:3d:7d:8c:da:
                    6c:bc:60:bb:cf:45:67:e0:12:4d:1e:58:44:1f:ae:
                    1d:f3
                Exponent: 65537 (0x10001)
        X509v3 extensions:
            X509v3 Basic Constraints: 
                CA:FALSE
            X509v3 Subject Key Identifier: 
                11:18:C3:02:9E:58:68:3A:1D:37:6E:96:0A:E9:EC:E2:9D:04:87:D5
            X509v3 Key Usage: 
                Digital Signature, Key Encipherment
    Signature Algorithm: sha1WithRSAEncryption
         0d:13:d2:6e:1a:41:14:a0:05:71:a6:84:2d:ff:3b:29:34:87:
         69:05:20:9f:e8:93:68:3c:0d:3d:2d:c4:a9:10:85:3b:0a:49:
         3a:a4:2f:e7:8f:5b:9d:80:5d:11:c7:63:08:e9:8d:ca:19:c6:
         a9:4a:d3:ac:1d:36:7a:77:95:18:16:78:c3:ac:24:1c:72:f1:
         28:04:b2:a8:60:fa:80:6f:65:ed:91:60:df:6f:59:d3:cb:7e:
         e1:f3:ae:42:7f:9e:4c:49:f9:bd:01:41:46:0e:ef:6a:7e:2c:
         bc:60:23:d8:d1:94:b9:b7:47:1e:d0:24:6d:59:c0:8a:3c:39:
         8f:8f:8e:93:f8:85:50:f2:9c:ea:1e:25:51:7c:74:58:56:31:
         c0:81:24:cd:97:0e:28:ca:53:c5:63:01:32:2a:b9:1e:21:99:
         da:91:f5:29:54:bf:76:fb:b8:c0:e6:b5:4f:97:25:72:96:f5:
         ec:e0:03:0b:e1:b2:f0:c9:86:72:93:c0:53:3b:80:5d:2c:e4:
         57:80:d7:6b:cf:d6:92:55:e1:46:f6:b2:1d:fc:54:c4:01:af:
         01:5b:3f:05:75:43:f4:06:97:1a:46:51:9f:03:dd:2e:3c:d9:
         50:7d:83:7e:a1:cb:d3:32:93:fb:38:01:0b:76:5a:76:4a:17:
         81:81:87:2c
-----BEGIN CERTIFICATE-----
MIIDYDCCAkigAwIBAgIBAzANBgkqhkiG9w0BAQUFADBHMRUwEwYDVQQDDAxDUkwg
U3ViIENBIDExCzAJBgNVBAYTAkRFMRMwEQYDVQQLDApCTVcgQ2FyIElUMQwwCgYD
VQQKDANCTVcwHhcNMTgwMTE2MTQ1OTMyWhcNMjAwMTE2MTQ1OTMyWjBlMR4wHAYD
VQQDDBVCTVcgQ2VydGlmaWNhdGUgMy4xLjIxEzARBgNVBAgMClNvbWUtU3RhdGUx
CzAJBgNVBAYTAkRFMQwwCgYDVQQKDANCTVcxEzARBgNVBAsMCkJNVyBDYXIgSVQw
ggEiMA0GCSqGSIb3DQEBAQUAA4IBDwAwggEKAoIBAQDWYr4M2ocyXDltHE+W4Ii6
VlwYJFlP6SXnPO64yQPkI1Hap8Lqf53Xr7uq7fYxlOVScm5yRsphRNgi8dvkbF5y
TyyIUquBfIF8w0qYKbjvZBAtknmhFbFOseytQ40Hm4xUZ99DvUeD3KWlXueXiuU0
cXHq6Mlc3gsWatDa+Fc3fk2pywvFY7ynXquyWCxQAvu1FaKb9RJ6ECWJpPHMaHRD
gQ277+tZm1RUFRmy8sNMaUZPTMp1w4lEqplIbRGLqztO2mOvJAXBS2CIp8UkgD86
eGvPfNLqi/iQA3cfP1q0DYgK+P3c8vHuRQqgPX2M2my8YLvPRWfgEk0eWEQfrh3z
AgMBAAGjOTA3MAkGA1UdEwQCMAAwHQYDVR0OBBYEFBEYwwKeWGg6HTdulgrp7OKd
BIfVMAsGA1UdDwQEAwIFoDANBgkqhkiG9w0BAQUFAAOCAQEADRPSbhpBFKAFcaaE
Lf87KTSHaQUgn+iTaDwNPS3EqRCFOwpJOqQv549bnYBdEcdjCOmNyhnGqUrTrB02
eneVGBZ4w6wkHHLxKASyqGD6gG9l7ZFg329Z08t+4fOuQn+eTEn5vQFBRg7van4s
vGAj2NGUubdHHtAkbVnAijw5j4+Ok/iFUPKc6h4lUXx0WFYxwIEkzZcOKMpTxWMB
Miq5HiGZ2pH1KVS/dvu4wOa1T5clcpb17OADC+Gy8MmGcpPAUzuAXSzkV4DXa8/W
klXhRvayHfxUxAGvAVs/BXVD9AaXGkZRnwPdLjzZUH2DfqHL0zKT+zgBC3ZadkoX
gYGHLA==
-----END CERTIFICATE-----
