Certificate:
    Data:
        Version: 3 (0x2)
        Serial Number: 4097 (0x1001)
    Signature Algorithm: sha256WithRSAEncryption
        Issuer: C=DE, ST=Bavaria, O=BMW, OU=Car IT, CN=Intemediate CA 1
        Validity
            Not Before: Mar 27 14:17:04 2017 GMT
            Not After : Aug 12 14:17:04 2044 GMT
        Subject: C=DE, ST=Bavaria, O=BMW, OU=Car IT, CN=Certificate under Intermediate 1
        Subject Public Key Info:
            Public Key Algorithm: rsaEncryption
                Public-Key: (2048 bit)
                Modulus:
                    00:ca:a9:dd:12:92:62:e1:89:44:97:e7:a8:51:c9:
                    25:a4:7a:18:d9:ad:69:c6:f0:45:a5:ae:4c:72:a3:
                    83:28:5e:ea:8b:0f:c0:ee:05:1b:48:44:f5:4d:c1:
                    29:f8:75:a0:78:80:a7:8f:41:dc:2d:aa:a8:87:45:
                    ce:6c:74:ee:94:bd:8b:68:4c:4a:9c:e4:74:dd:61:
                    cf:3c:e7:2e:99:2e:0b:0e:e3:6a:d6:c7:eb:af:93:
                    8f:3f:80:a9:37:2c:89:78:c3:61:05:e4:e7:bf:70:
                    71:42:c9:6f:b4:18:5c:40:5e:32:b0:32:9a:8f:b2:
                    4d:c2:f9:cb:71:b0:4a:27:e2:bd:e8:a2:38:23:99:
                    5d:5e:3f:cc:3d:49:29:5f:c2:a5:91:12:53:5e:03:
                    2d:ea:59:a0:1b:45:eb:f4:d2:7c:c1:de:88:6e:0c:
                    d5:5b:31:be:3e:69:08:b5:37:3b:64:c4:b4:fa:72:
                    b3:cc:11:89:48:1f:eb:e9:dd:ad:95:ac:f9:0f:06:
                    0a:96:b5:25:b0:09:61:5a:39:99:9f:83:38:e0:9d:
                    d0:ca:ed:04:9e:79:b3:ab:c6:65:22:4b:88:98:8a:
                    d6:30:df:8b:2b:ac:31:91:7c:27:49:84:75:45:d0:
                    6e:cb:89:a2:79:1f:12:fc:6b:34:66:0c:04:44:41:
                    6d:47
                Exponent: 65537 (0x10001)
        X509v3 extensions:
            X509v3 Basic Constraints: 
                CA:FALSE
            Netscape Cert Type: 
                SSL Client
            Netscape Comment: 
                OpenSSL Generated Client Certificate
            X509v3 Subject Key Identifier: 
                96:7D:A1:A2:4D:DD:5A:CB:AB:24:93:1F:4B:4F:70:DC:8B:C1:01:8D
            X509v3 Authority Key Identifier: 
                keyid:10:BB:7A:A1:82:16:CF:CE:22:FF:EB:99:E1:B7:9D:D3:0D:7D:32:82

            X509v3 Key Usage: critical
                Digital Signature, Non Repudiation, Key Encipherment
            X509v3 Extended Key Usage: 
                TLS Web Client Authentication
    Signature Algorithm: sha256WithRSAEncryption
         e2:60:35:b2:6c:18:db:3a:ff:32:77:e6:53:23:02:1d:e6:b1:
         b6:54:4c:f0:f4:1d:f2:35:92:8d:d9:59:ed:d4:4b:d4:b3:86:
         fb:55:8e:28:2d:f3:12:6b:95:b3:ff:70:e5:9a:b4:a1:1f:2a:
         66:74:4a:71:cd:ca:a2:a9:e9:44:cf:36:09:0a:d3:75:f1:bc:
         d0:23:5f:2e:e6:de:cc:a8:92:b2:46:d2:f7:0e:2c:0d:cf:51:
         21:45:a4:b6:a2:c5:c5:3d:ab:37:6c:53:36:6d:ad:a4:aa:c2:
         fa:13:98:ea:e6:be:1c:f3:68:d0:60:95:9a:45:85:27:06:a9:
         54:2c:65:86:cc:10:a6:d2:90:d5:9b:1a:3f:84:ff:41:a8:02:
         33:e9:14:cf:06:55:e1:9d:2c:f7:c1:7e:90:f2:6d:5e:91:96:
         00:05:9a:e4:6d:e9:22:9d:27:57:99:bf:2a:7a:6c:97:cb:37:
         c4:5a:a0:a3:17:87:b6:53:90:2c:8e:ad:48:4e:de:a0:ae:01:
         49:f6:d5:74:bd:93:bb:ee:ea:42:59:44:ff:29:ee:00:59:6f:
         d9:cb:9e:3f:cf:22:53:f8:66:ba:e0:2d:fa:59:af:45:a4:28:
         30:c2:39:92:9e:21:df:f8:8b:55:96:27:8c:43:6c:3c:f2:8d:
         a9:56:81:02
-----BEGIN CERTIFICATE-----
MIID+jCCAuKgAwIBAgICEAEwDQYJKoZIhvcNAQELBQAwWTELMAkGA1UEBhMCREUx
EDAOBgNVBAgMB0JhdmFyaWExDDAKBgNVBAoMA0JNVzEPMA0GA1UECwwGQ2FyIElU
MRkwFwYDVQQDDBBJbnRlbWVkaWF0ZSBDQSAxMB4XDTE3MDMyNzE0MTcwNFoXDTQ0
MDgxMjE0MTcwNFowaTELMAkGA1UEBhMCREUxEDAOBgNVBAgMB0JhdmFyaWExDDAK
BgNVBAoMA0JNVzEPMA0GA1UECwwGQ2FyIElUMSkwJwYDVQQDDCBDZXJ0aWZpY2F0
ZSB1bmRlciBJbnRlcm1lZGlhdGUgMTCCASIwDQYJKoZIhvcNAQEBBQADggEPADCC
AQoCggEBAMqp3RKSYuGJRJfnqFHJJaR6GNmtacbwRaWuTHKjgyhe6osPwO4FG0hE
9U3BKfh1oHiAp49B3C2qqIdFzmx07pS9i2hMSpzkdN1hzzznLpkuCw7jatbH66+T
jz+AqTcsiXjDYQXk579wcULJb7QYXEBeMrAymo+yTcL5y3GwSifiveiiOCOZXV4/
zD1JKV/CpZESU14DLepZoBtF6/TSfMHeiG4M1Vsxvj5pCLU3O2TEtPpys8wRiUgf
6+ndrZWs+Q8GCpa1JbAJYVo5mZ+DOOCd0MrtBJ55s6vGZSJLiJiK1jDfiyusMZF8
J0mEdUXQbsuJonkfEvxrNGYMBERBbUcCAwEAAaOBuzCBuDAJBgNVHRMEAjAAMBEG
CWCGSAGG+EIBAQQEAwIHgDAzBglghkgBhvhCAQ0EJhYkT3BlblNTTCBHZW5lcmF0
ZWQgQ2xpZW50IENlcnRpZmljYXRlMB0GA1UdDgQWBBSWfaGiTd1ay6skkx9LT3Dc
i8EBjTAfBgNVHSMEGDAWgBQQu3qhghbPziL/65nht53TDX0ygjAOBgNVHQ8BAf8E
BAMCBeAwEwYDVR0lBAwwCgYIKwYBBQUHAwIwDQYJKoZIhvcNAQELBQADggEBAOJg
NbJsGNs6/zJ35lMjAh3msbZUTPD0HfI1ko3ZWe3US9SzhvtVjigt8xJrlbP/cOWa
tKEfKmZ0SnHNyqKp6UTPNgkK03XxvNAjXy7m3syokrJG0vcOLA3PUSFFpLaixcU9
qzdsUzZtraSqwvoTmOrmvhzzaNBglZpFhScGqVQsZYbMEKbSkNWbGj+E/0GoAjPp
FM8GVeGdLPfBfpDybV6RlgAFmuRt6SKdJ1eZvyp6bJfLN8RaoKMXh7ZTkCyOrUhO
3qCuAUn21XS9k7vu6kJZRP8p7gBZb9nLnj/PIlP4ZrrgLfpZr0WkKDDCOZKeId/4
i1WWJ4xDbDzyjalWgQI=
-----END CERTIFICATE-----
