Certificate:
    Data:
        Version: 3 (0x2)
        Serial Number: 4096 (0x1000)
    Signature Algorithm: sha256WithRSAEncryption
        Issuer: C=DE, ST=Bavaria, L=Munich, O=BMW, OU=Car IT, CN=Root CA 2
        Validity
            Not Before: Mar 27 13:03:18 2017 GMT
            Not After : Aug 12 13:03:18 2044 GMT
        Subject: C=DE, ST=Bavaria, O=BMW, OU=Car IT, CN=Intermediate CA 1
        Subject Public Key Info:
            Public Key Algorithm: rsaEncryption
                Public-Key: (2048 bit)
                Modulus:
                    00:d4:84:4d:a5:97:26:2a:97:49:79:7d:3a:c2:af:
                    8b:a0:8c:a5:4a:9f:e8:ce:5f:17:b4:73:27:74:08:
                    8e:2b:14:09:85:84:02:67:63:c8:c4:80:d0:c4:0b:
                    24:37:ec:f6:7c:da:3e:74:80:44:c1:b5:32:9b:3e:
                    eb:66:94:56:e8:8b:26:31:54:0a:e6:ea:c2:a2:43:
                    1b:6c:6d:d2:65:85:8a:b9:2e:d9:04:40:cb:73:62:
                    1e:27:5c:a1:71:7d:a4:4a:f4:89:5c:1c:c5:8f:6c:
                    c2:a9:01:94:77:84:fd:d3:d3:40:37:98:c4:72:c8:
                    cb:79:5a:8c:ac:98:13:a7:b2:51:0d:d6:47:95:eb:
                    dc:0f:4a:78:42:f6:ea:7c:4f:18:1b:d9:32:f8:38:
                    af:35:57:21:84:d2:ae:7e:44:4d:8f:f5:4c:93:11:
                    68:1e:f5:12:d0:ff:72:2e:59:3d:7b:22:33:3a:9e:
                    20:f8:8f:a4:2d:1f:53:95:ec:8c:f3:e3:0e:cf:46:
                    7a:6f:64:9b:54:c4:f9:d2:e0:5b:7e:58:37:51:5c:
                    d3:16:3b:5d:b5:9a:ca:4f:26:1a:48:c9:14:e7:0d:
                    29:75:e7:e2:ff:73:eb:64:95:3b:34:bd:e5:0e:f4:
                    d4:5d:96:ba:37:82:c1:a5:49:9a:50:72:f3:3a:69:
                    cf:95
                Exponent: 65537 (0x10001)
        X509v3 extensions:
            X509v3 Subject Key Identifier: 
                C7:FC:7D:4B:BB:4A:B2:B5:AF:C1:EB:AB:04:9C:17:59:79:B1:DF:34
            X509v3 Authority Key Identifier: 
                keyid:95:56:8A:5D:32:C7:9A:CE:A5:DC:67:78:F5:31:C7:DF:60:55:86:1C

            X509v3 Basic Constraints: critical
                CA:TRUE, pathlen:0
            X509v3 Key Usage: critical
                Digital Signature, Certificate Sign, CRL Sign
    Signature Algorithm: sha256WithRSAEncryption
         65:88:cc:2e:58:35:ec:a9:24:ac:5a:e8:40:0d:e6:bd:5f:41:
         27:29:d1:13:8a:61:ab:e9:30:fd:ad:e7:9a:ac:e2:76:04:de:
         f2:87:1c:f3:7e:09:4b:6a:d9:8c:11:a4:b5:c9:2a:7a:e6:48:
         91:83:3d:6e:5a:b1:35:a9:93:9c:4a:1e:14:1c:ff:2d:77:4b:
         38:2b:14:5a:43:aa:7d:e2:5e:c9:8d:69:8a:7a:eb:cd:eb:1c:
         d6:3e:ca:f5:0c:47:9a:9d:5b:0f:4f:88:a8:02:4c:71:36:c8:
         3f:83:71:5a:df:b0:65:88:c2:a2:ad:d0:32:49:12:e7:d7:cf:
         f5:84:66:75:61:54:66:66:d1:11:10:62:16:21:22:6a:b4:de:
         93:e6:7c:6f:51:fb:29:a3:45:85:43:d1:8d:ed:04:48:27:07:
         97:ad:0c:4d:99:7d:b3:da:9c:14:5a:af:1c:b4:10:85:cb:07:
         35:cc:b9:5d:74:1d:95:b6:43:d9:d8:df:35:28:e2:74:aa:96:
         83:67:3c:03:34:40:67:2b:75:51:89:62:32:c4:35:1b:b2:c5:
         b1:d0:63:de:94:7b:d3:2b:2a:40:14:d7:91:06:6e:ce:8e:09:
         28:2b:c1:9e:56:c6:98:71:2e:84:85:e8:af:75:ba:f5:4d:7c:
         f5:11:b8:09
-----BEGIN CERTIFICATE-----
MIIDnzCCAoegAwIBAgICEAAwDQYJKoZIhvcNAQELBQAwYzELMAkGA1UEBhMCREUx
EDAOBgNVBAgMB0JhdmFyaWExDzANBgNVBAcMBk11bmljaDEMMAoGA1UECgwDQk1X
MQ8wDQYDVQQLDAZDYXIgSVQxEjAQBgNVBAMMCVJvb3QgQ0EgMjAeFw0xNzAzMjcx
MzAzMThaFw00NDA4MTIxMzAzMThaMFoxCzAJBgNVBAYTAkRFMRAwDgYDVQQIDAdC
YXZhcmlhMQwwCgYDVQQKDANCTVcxDzANBgNVBAsMBkNhciBJVDEaMBgGA1UEAwwR
SW50ZXJtZWRpYXRlIENBIDEwggEiMA0GCSqGSIb3DQEBAQUAA4IBDwAwggEKAoIB
AQDUhE2llyYql0l5fTrCr4ugjKVKn+jOXxe0cyd0CI4rFAmFhAJnY8jEgNDECyQ3
7PZ82j50gETBtTKbPutmlFboiyYxVArm6sKiQxtsbdJlhYq5LtkEQMtzYh4nXKFx
faRK9IlcHMWPbMKpAZR3hP3T00A3mMRyyMt5WoysmBOnslEN1keV69wPSnhC9up8
Txgb2TL4OK81VyGE0q5+RE2P9UyTEWge9RLQ/3IuWT17IjM6niD4j6QtH1OV7Izz
4w7PRnpvZJtUxPnS4Ft+WDdRXNMWO121mspPJhpIyRTnDSl15+L/c+tklTs0veUO
9NRdlro3gsGlSZpQcvM6ac+VAgMBAAGjZjBkMB0GA1UdDgQWBBTH/H1Lu0qyta/B
66sEnBdZebHfNDAfBgNVHSMEGDAWgBSVVopdMseazqXcZ3j1McffYFWGHDASBgNV
HRMBAf8ECDAGAQH/AgEAMA4GA1UdDwEB/wQEAwIBhjANBgkqhkiG9w0BAQsFAAOC
AQEAZYjMLlg17KkkrFroQA3mvV9BJynRE4phq+kw/a3nmqzidgTe8occ834JS2rZ
jBGktckqeuZIkYM9blqxNamTnEoeFBz/LXdLOCsUWkOqfeJeyY1pinrrzesc1j7K
9QxHmp1bD0+IqAJMcTbIP4NxWt+wZYjCoq3QMkkS59fP9YRmdWFUZmbRERBiFiEi
arTek+Z8b1H7KaNFhUPRje0ESCcHl60MTZl9s9qcFFqvHLQQhcsHNcy5XXQdlbZD
2djfNSjidKqWg2c8AzRAZyt1UYliMsQ1G7LFsdBj3pR70ysqQBTXkQZuzo4JKCvB
nlbGmHEuhIXor3W69U189RG4CQ==
-----END CERTIFICATE-----
