Certificate:
    Data:
        Version: 3 (0x2)
        Serial Number: 4096 (0x1000)
    Signature Algorithm: sha256WithRSAEncryption
        Issuer: C=DE, ST=Bavaria, O=BMW, OU=Car IT, CN=Invalid CA (pathlen violated)
        Validity
            Not Before: Mar 27 19:06:02 2017 GMT
            Not After : Aug 12 19:06:02 2044 GMT
        Subject: C=DE, ST=Bavaria, O=BMW, OU=Car IT, CN=Should not validate (its CA is a fake)
        Subject Public Key Info:
            Public Key Algorithm: rsaEncryption
                Public-Key: (2048 bit)
                Modulus:
                    00:ce:02:5e:1c:a2:18:9c:07:46:4a:24:98:5b:c3:
                    49:7e:9a:fb:ac:ab:35:b1:fe:fc:18:a6:e2:27:52:
                    84:54:f8:0b:17:d5:45:1a:22:2e:b5:5a:10:83:dd:
                    e3:01:a6:fc:13:d2:01:1f:d3:ea:2e:c1:ed:16:c6:
                    45:bc:31:d5:f0:36:b3:97:33:6a:5b:4e:32:8e:77:
                    eb:19:02:8f:41:e8:36:73:85:cc:ff:1f:ed:6e:ae:
                    b1:94:da:55:95:97:41:12:56:52:ab:31:75:e4:11:
                    10:6a:61:29:7c:6f:05:54:c1:c9:9e:85:16:0d:a3:
                    28:1c:ad:3e:44:f4:56:be:5e:4b:27:a2:5a:ce:98:
                    56:4a:8f:43:d9:22:4f:67:2c:d5:23:8e:0b:43:ae:
                    9c:33:a8:e2:f2:98:f4:f1:57:e3:6e:77:75:16:3b:
                    2f:9a:f6:c0:11:7d:87:71:7c:d6:d6:e2:06:92:db:
                    ba:b9:aa:fb:1e:79:48:f3:bd:7a:d6:f7:cb:36:2e:
                    8c:84:99:0d:fe:66:f6:a9:f5:86:2b:97:84:1d:6b:
                    1d:0a:c2:86:4f:49:1d:e7:12:18:c1:9a:7e:d2:7b:
                    95:b4:89:78:01:3c:3f:a4:0a:6f:32:11:80:1b:c9:
                    6a:c3:b7:5c:2e:4a:90:66:62:5e:75:c1:25:15:33:
                    20:a9
                Exponent: 65537 (0x10001)
        X509v3 extensions:
            X509v3 Basic Constraints: 
                CA:FALSE
            Netscape Cert Type: 
                SSL Client
            Netscape Comment: 
                OpenSSL Generated Client Certificate
            X509v3 Subject Key Identifier: 
                95:6F:AF:67:C5:B2:94:61:BC:92:CE:B8:19:6D:D5:F2:E6:55:10:10
            X509v3 Authority Key Identifier: 
                keyid:05:B0:DC:37:52:D7:F0:B3:D9:BD:75:D2:9E:BF:78:13:E7:16:A2:9F

            X509v3 Key Usage: critical
                Digital Signature, Non Repudiation, Key Encipherment
            X509v3 Extended Key Usage: 
                TLS Web Client Authentication
    Signature Algorithm: sha256WithRSAEncryption
         08:b7:7d:95:76:f6:ee:2f:a5:c5:43:24:85:2b:b9:8d:1a:2a:
         17:1a:58:66:70:69:44:a5:0d:83:8c:2f:fe:19:93:12:f7:42:
         b3:6d:87:84:70:5a:75:9f:93:bb:4d:af:7e:e1:0d:65:fa:9c:
         56:a3:80:84:8c:d2:c0:8e:44:a3:47:30:b4:a7:17:25:56:47:
         a9:03:15:49:cd:dd:fc:fc:cc:b2:22:03:af:69:00:1f:4a:c9:
         91:7d:75:1a:01:1d:e1:70:06:ca:f8:78:75:e2:65:ba:e3:76:
         f0:b3:7d:1c:03:29:e9:31:de:01:95:9d:da:d2:c5:63:a2:c3:
         bb:cd:26:4c:d8:e0:aa:d0:3b:d1:d6:d4:42:0b:92:10:43:eb:
         03:3b:3a:6e:f8:e2:55:64:ea:d4:27:58:b3:75:91:49:f2:a2:
         37:0e:53:05:a8:04:e0:76:2d:ea:62:61:84:73:d4:fc:2e:9e:
         37:20:a8:69:01:40:5d:a6:e6:ba:d6:5b:1c:41:16:b8:d7:89:
         2b:f2:25:75:6c:35:87:63:1a:5e:22:81:7c:f5:ac:42:51:16:
         38:54:be:ec:df:01:bd:0b:73:d2:1f:5e:ee:05:01:03:b3:05:
         01:c2:04:b0:c9:79:ae:27:0f:9a:c6:fb:53:b4:1f:b4:7c:c6:
         c7:02:16:05
-----BEGIN CERTIFICATE-----
MIIEDTCCAvWgAwIBAgICEAAwDQYJKoZIhvcNAQELBQAwZjELMAkGA1UEBhMCREUx
EDAOBgNVBAgMB0JhdmFyaWExDDAKBgNVBAoMA0JNVzEPMA0GA1UECwwGQ2FyIElU
MSYwJAYDVQQDDB1JbnZhbGlkIENBIChwYXRobGVuIHZpb2xhdGVkKTAeFw0xNzAz
MjcxOTA2MDJaFw00NDA4MTIxOTA2MDJaMG8xCzAJBgNVBAYTAkRFMRAwDgYDVQQI
DAdCYXZhcmlhMQwwCgYDVQQKDANCTVcxDzANBgNVBAsMBkNhciBJVDEvMC0GA1UE
AwwmU2hvdWxkIG5vdCB2YWxpZGF0ZSAoaXRzIENBIGlzIGEgZmFrZSkwggEiMA0G
CSqGSIb3DQEBAQUAA4IBDwAwggEKAoIBAQDOAl4cohicB0ZKJJhbw0l+mvusqzWx
/vwYpuInUoRU+AsX1UUaIi61WhCD3eMBpvwT0gEf0+ouwe0WxkW8MdXwNrOXM2pb
TjKOd+sZAo9B6DZzhcz/H+1urrGU2lWVl0ESVlKrMXXkERBqYSl8bwVUwcmehRYN
oygcrT5E9Fa+XksnolrOmFZKj0PZIk9nLNUjjgtDrpwzqOLymPTxV+Nud3UWOy+a
9sARfYdxfNbW4gaS27q5qvseeUjzvXrW98s2LoyEmQ3+Zvap9YYrl4Qdax0KwoZP
SR3nEhjBmn7Se5W0iXgBPD+kCm8yEYAbyWrDt1wuSpBmYl51wSUVMyCpAgMBAAGj
gbswgbgwCQYDVR0TBAIwADARBglghkgBhvhCAQEEBAMCB4AwMwYJYIZIAYb4QgEN
BCYWJE9wZW5TU0wgR2VuZXJhdGVkIENsaWVudCBDZXJ0aWZpY2F0ZTAdBgNVHQ4E
FgQUlW+vZ8WylGG8ks64GW3V8uZVEBAwHwYDVR0jBBgwFoAUBbDcN1LX8LPZvXXS
nr94E+cWop8wDgYDVR0PAQH/BAQDAgXgMBMGA1UdJQQMMAoGCCsGAQUFBwMCMA0G
CSqGSIb3DQEBCwUAA4IBAQAIt32VdvbuL6XFQySFK7mNGioXGlhmcGlEpQ2DjC/+
GZMS90KzbYeEcFp1n5O7Ta9+4Q1l+pxWo4CEjNLAjkSjRzC0pxclVkepAxVJzd38
/MyyIgOvaQAfSsmRfXUaAR3hcAbK+Hh14mW643bws30cAynpMd4BlZ3a0sVjosO7
zSZM2OCq0DvR1tRCC5IQQ+sDOzpu+OJVZOrUJ1izdZFJ8qI3DlMFqATgdi3qYmGE
c9T8Lp43IKhpAUBdpua61lscQRa414kr8iV1bDWHYxpeIoF89axCURY4VL7s3wG9
C3PSH17uBQEDswUBwgSwyXmuJw+axvtTtB+0fMbHAhYF
-----END CERTIFICATE-----
