Certificate:
    Data:
        Version: 3 (0x2)
        Serial Number: 4097 (0x1001)
    Signature Algorithm: sha256WithRSAEncryption
        Issuer: C=DE, ST=Bavaria, L=Munich, O=BMW, OU=Car IT, CN=Root CA 1
        Validity
            Not Before: Mar 27 12:51:56 2017 GMT
            Not After : Aug 12 12:51:56 2044 GMT
        Subject: C=DE, ST=Bavaria, O=BMW, OU=Car IT, CN=Intermediate CA 2
        Subject Public Key Info:
            Public Key Algorithm: rsaEncryption
                Public-Key: (2048 bit)
                Modulus:
                    00:cf:f2:49:06:32:a4:e6:1e:eb:1d:4e:14:45:4e:
                    02:93:fd:88:5a:8a:ff:7f:66:3a:4d:79:ff:0b:7d:
                    8c:e8:69:a2:50:7b:f2:ee:19:cb:71:29:6f:78:ff:
                    ea:de:43:1e:3b:1d:ac:4e:69:8e:04:d8:58:db:fc:
                    ae:12:cf:f8:1a:14:9e:3a:27:07:27:ed:b9:b7:3c:
                    ec:22:ad:29:75:3d:c2:6e:8a:c5:b7:b0:74:0a:61:
                    25:04:96:68:a3:2c:0b:1a:09:23:87:a6:d0:57:f7:
                    87:b8:08:ec:63:b4:9b:29:e3:0a:6f:30:fa:40:8d:
                    bf:7c:26:01:50:f6:0f:47:b1:4b:fe:fa:de:7a:82:
                    ee:24:78:2a:bf:35:2d:2f:89:a3:ca:3f:54:1b:06:
                    72:e2:29:b6:52:50:2b:e1:c6:ec:6b:ad:11:7c:3e:
                    4f:8f:80:7c:d9:de:71:ca:a6:1e:da:6e:bf:5a:0c:
                    6f:2e:79:f7:6d:72:ff:fa:dc:c2:4b:11:fa:ee:d1:
                    74:b8:c8:a6:f8:fd:13:8b:8b:aa:57:46:7d:a4:ce:
                    5d:84:23:35:9f:10:cf:ff:d5:61:b7:ce:5e:41:0e:
                    b7:69:51:af:31:4a:68:0f:09:65:31:e7:16:6d:52:
                    03:1f:51:20:00:c5:8d:72:e7:76:54:d5:18:e0:bf:
                    e6:85
                Exponent: 65537 (0x10001)
        X509v3 extensions:
            X509v3 Subject Key Identifier: 
                9D:AE:8D:37:E5:AA:A0:5D:DD:D7:7C:6C:85:0F:D6:DF:F4:61:33:6B
            X509v3 Authority Key Identifier: 
                keyid:D3:14:A3:86:B3:6F:70:70:94:1A:26:D6:20:38:D0:11:CF:A7:8A:B2

            X509v3 Basic Constraints: critical
                CA:TRUE, pathlen:0
            X509v3 Key Usage: critical
                Digital Signature, Certificate Sign, CRL Sign
    Signature Algorithm: sha256WithRSAEncryption
         33:8a:09:3c:6a:0f:53:36:98:3c:0b:66:33:5e:dd:30:37:ee:
         0c:c3:ca:40:75:79:83:8d:af:53:e5:07:a7:7a:6d:aa:a4:b3:
         4d:6c:86:b8:b0:96:d9:72:7d:b0:2a:d2:37:30:b2:15:93:13:
         0e:5b:ef:69:25:ca:cd:03:6b:4c:08:73:c9:58:13:b0:46:55:
         38:e8:fa:97:fa:e5:4c:98:aa:f3:20:64:36:3e:0f:40:3e:78:
         b8:85:9a:73:9c:ae:f8:6e:d0:36:f6:1f:ae:2e:85:ca:59:60:
         3c:8f:c0:83:3e:2b:64:64:66:fb:2f:1e:2e:fb:ee:51:16:22:
         85:70:b5:bf:d6:85:41:33:35:b7:da:d3:d7:a0:63:ad:d6:93:
         80:4c:ef:b3:0a:83:4c:4d:e4:1b:0c:35:7d:b0:2f:96:40:0a:
         2f:e2:85:34:d3:de:58:40:4f:40:98:7c:13:52:43:d2:d8:6b:
         cb:f6:d4:9f:8d:6a:67:25:0c:10:03:3c:a3:1b:ae:5e:8a:49:
         68:a8:b7:97:de:48:ad:ba:93:e3:b8:29:ae:36:0e:43:3f:e1:
         d8:5e:c8:79:71:d9:43:a8:64:d9:1a:ae:55:e9:37:c3:bc:55:
         62:57:f9:7b:35:7e:7e:4f:50:ad:b7:80:73:b6:9c:45:10:02:
         af:b0:a0:5d:bb:41:b4:de:ac:d7:a5:20:1c:36:59:42:a5:df:
         86:ec:f3:8e:b9:6d:86:db:2a:a9:f2:e5:06:c3:9a:c0:0b:f2:
         49:be:63:07:f0:2a:f4:e3:73:e6:95:1f:ed:da:51:cb:e3:04:
         02:59:9b:25:e7:c8:10:8c:80:9b:d6:81:92:04:17:2c:0d:d3:
         e0:b7:6c:dd:6a:5a:e8:5a:2d:60:6b:b7:4c:2a:0b:af:bc:f4:
         27:c0:4a:79:ba:5b:60:9d:2b:85:be:c6:cf:e7:66:c3:3c:3c:
         5f:dd:98:23:18:5f:01:f4:79:a1:fc:10:69:19:35:16:42:3b:
         38:99:30:67:c2:92:4b:96:ba:d6:22:36:f6:9f:a9:56:0e:bc:
         07:69:9b:62:d1:84:55:8d:72:fd:78:4f:38:25:34:68:6b:c1:
         37:01:c7:f6:7f:25:b4:18:c0:81:d6:69:99:6c:3c:92:71:90:
         51:72:6b:fa:21:aa:cb:96:2b:52:a2:4c:33:30:da:56:c0:b9:
         80:be:b3:75:fb:51:c8:48:97:a4:52:03:0d:c5:1e:f7:33:5a:
         ae:47:34:01:95:ed:37:aa:73:a9:d9:4c:9a:1b:90:87:8e:2a:
         de:6f:70:c7:8e:a5:ed:7a:ce:17:84:d5:f7:53:44:92:78:07:
         86:33:e8:8c:f6:8e:69:09
-----BEGIN CERTIFICATE-----
MIIEnzCCAoegAwIBAgICEAEwDQYJKoZIhvcNAQELBQAwYzELMAkGA1UEBhMCREUx
EDAOBgNVBAgMB0JhdmFyaWExDzANBgNVBAcMBk11bmljaDEMMAoGA1UECgwDQk1X
MQ8wDQYDVQQLDAZDYXIgSVQxEjAQBgNVBAMMCVJvb3QgQ0EgMTAeFw0xNzAzMjcx
MjUxNTZaFw00NDA4MTIxMjUxNTZaMFoxCzAJBgNVBAYTAkRFMRAwDgYDVQQIDAdC
YXZhcmlhMQwwCgYDVQQKDANCTVcxDzANBgNVBAsMBkNhciBJVDEaMBgGA1UEAwwR
SW50ZXJtZWRpYXRlIENBIDIwggEiMA0GCSqGSIb3DQEBAQUAA4IBDwAwggEKAoIB
AQDP8kkGMqTmHusdThRFTgKT/Yhaiv9/ZjpNef8LfYzoaaJQe/LuGctxKW94/+re
Qx47HaxOaY4E2Fjb/K4Sz/gaFJ46Jwcn7bm3POwirSl1PcJuisW3sHQKYSUElmij
LAsaCSOHptBX94e4COxjtJsp4wpvMPpAjb98JgFQ9g9HsUv++t56gu4keCq/NS0v
iaPKP1QbBnLiKbZSUCvhxuxrrRF8Pk+PgHzZ3nHKph7abr9aDG8uefdtcv/63MJL
Efru0XS4yKb4/ROLi6pXRn2kzl2EIzWfEM//1WG3zl5BDrdpUa8xSmgPCWUx5xZt
UgMfUSAAxY1y53ZU1Rjgv+aFAgMBAAGjZjBkMB0GA1UdDgQWBBSdro035aqgXd3X
fGyFD9bf9GEzazAfBgNVHSMEGDAWgBTTFKOGs29wcJQaJtYgONARz6eKsjASBgNV
HRMBAf8ECDAGAQH/AgEAMA4GA1UdDwEB/wQEAwIBhjANBgkqhkiG9w0BAQsFAAOC
AgEAM4oJPGoPUzaYPAtmM17dMDfuDMPKQHV5g42vU+UHp3ptqqSzTWyGuLCW2XJ9
sCrSNzCyFZMTDlvvaSXKzQNrTAhzyVgTsEZVOOj6l/rlTJiq8yBkNj4PQD54uIWa
c5yu+G7QNvYfri6FyllgPI/Agz4rZGRm+y8eLvvuURYihXC1v9aFQTM1t9rT16Bj
rdaTgEzvswqDTE3kGww1fbAvlkAKL+KFNNPeWEBPQJh8E1JD0thry/bUn41qZyUM
EAM8oxuuXopJaKi3l95IrbqT47gprjYOQz/h2F7IeXHZQ6hk2RquVek3w7xVYlf5
ezV+fk9QrbeAc7acRRACr7CgXbtBtN6s16UgHDZZQqXfhuzzjrlthtsqqfLlBsOa
wAvySb5jB/Aq9ONz5pUf7dpRy+MEAlmbJefIEIyAm9aBkgQXLA3T4Lds3Wpa6Fot
YGu3TCoLr7z0J8BKebpbYJ0rhb7Gz+dmwzw8X92YIxhfAfR5ofwQaRk1FkI7OJkw
Z8KSS5a61iI29p+pVg68B2mbYtGEVY1y/XhPOCU0aGvBNwHH9n8ltBjAgdZpmWw8
knGQUXJr+iGqy5YrUqJMMzDaVsC5gL6zdftRyEiXpFIDDcUe9zNarkc0AZXtN6pz
qdlMmhuQh44q3m9wx46l7XrOF4TV91NEkngHhjPojPaOaQk=
-----END CERTIFICATE-----
