Certificate:
    Data:
        Version: 3 (0x2)
        Serial Number: 4096 (0x1000)
    Signature Algorithm: sha256WithRSAEncryption
        Issuer: C=DE, ST=Bavaria, O=BMW, OU=Car IT, CN=Intermediate CA 1
        Validity
            Not Before: Mar 27 13:22:16 2017 GMT
            Not After : Aug 12 13:22:16 2044 GMT
        Subject: C=DE, ST=Bavaria, O=BMW, OU=Car IT, CN=Testing Cert 1
        Subject Public Key Info:
            Public Key Algorithm: rsaEncryption
                Public-Key: (2048 bit)
                Modulus:
                    00:ad:39:da:07:a9:77:17:ba:a1:58:f5:0e:70:6e:
                    29:3e:d3:e1:ea:f8:99:a8:e8:8c:fe:c7:fd:50:c4:
                    60:86:35:a7:44:37:67:78:57:29:81:01:65:b0:15:
                    55:31:1f:e7:cb:78:f5:0f:dd:cb:08:c3:84:90:a0:
                    eb:b7:72:a4:d2:26:e2:cc:67:6b:0e:cb:57:d3:63:
                    b5:a7:9f:6d:59:f5:e5:ad:1c:ff:2c:f0:e8:f9:a6:
                    30:d0:21:50:89:5a:2a:2c:84:ce:07:42:db:02:35:
                    29:8a:4b:0a:f9:6b:c0:e4:66:4c:b7:a2:76:ab:6c:
                    79:51:6a:29:b6:e9:ac:8f:6e:02:dd:50:a0:db:72:
                    74:be:9d:6a:78:35:dc:e6:38:a1:e6:49:36:69:3a:
                    66:bd:11:4f:72:15:d9:ab:84:c5:20:7d:b9:b7:cd:
                    31:65:0e:39:69:e9:81:ab:e9:04:13:fd:f8:af:63:
                    d1:7c:a4:82:45:32:d8:4c:2b:bd:6b:38:90:30:7a:
                    07:bb:5a:d8:be:a1:c9:1c:58:44:e8:23:de:77:32:
                    f5:f2:cd:b3:9c:0e:17:cd:ec:1d:54:ab:a3:6e:d1:
                    9e:05:91:ef:ac:75:28:52:d9:81:78:70:c2:d5:9d:
                    a5:ae:85:97:97:59:32:e7:6a:ec:a0:f9:a0:10:ef:
                    fa:e9
                Exponent: 65537 (0x10001)
        X509v3 extensions:
            X509v3 Basic Constraints: 
                CA:FALSE
            Netscape Cert Type: 
                SSL Client
            Netscape Comment: 
                OpenSSL Generated Client Certificate
            X509v3 Subject Key Identifier: 
                08:54:B5:A8:FB:C9:4C:BB:23:A8:9D:4D:5C:24:C7:15:E6:BC:0C:D5
            X509v3 Authority Key Identifier: 
                keyid:C7:FC:7D:4B:BB:4A:B2:B5:AF:C1:EB:AB:04:9C:17:59:79:B1:DF:34

            X509v3 Key Usage: critical
                Digital Signature, Non Repudiation, Key Encipherment
            X509v3 Extended Key Usage: 
                TLS Web Client Authentication
    Signature Algorithm: sha256WithRSAEncryption
         19:78:30:47:28:80:59:65:09:5c:ee:12:c4:1e:d3:6d:0b:cf:
         d7:bd:2e:24:f3:cf:d3:e0:8b:f6:b1:42:de:0c:20:05:54:aa:
         16:08:ff:c6:78:2f:2e:a1:8a:ff:a6:d4:11:24:7a:a4:4a:48:
         ac:48:7a:8b:03:58:4c:14:e4:1d:f1:ab:bb:f4:a9:ba:01:74:
         40:01:c6:f8:2a:58:af:aa:cd:72:50:71:8d:de:ae:00:69:c8:
         56:7c:87:66:b3:47:48:f4:1c:a4:18:12:ac:18:b6:35:9c:33:
         d7:9e:08:ba:1c:fb:ff:fd:b7:53:45:dc:3c:0a:a7:07:25:f3:
         16:c8:82:3f:23:ad:85:93:a4:f6:8c:2e:f9:a3:9c:fc:af:74:
         69:a5:48:2b:03:4a:ea:d2:61:13:33:b5:51:1e:39:1b:0b:27:
         c7:f2:30:0b:d4:85:bc:74:02:95:37:f3:6e:0d:9a:d0:cb:cf:
         44:f4:3d:b5:41:63:29:db:83:4b:72:17:f2:fe:b2:ff:24:49:
         b7:75:7c:5c:67:61:13:ee:94:9e:3f:1e:8b:e9:70:78:ae:84:
         07:69:98:7d:c7:f6:ad:4b:69:8e:e9:f8:33:23:7e:b3:a4:85:
         ad:aa:e3:f7:57:7c:73:6d:70:97:88:db:58:97:22:bd:99:3b:
         24:58:3b:04
-----BEGIN CERTIFICATE-----
MIID6TCCAtGgAwIBAgICEAAwDQYJKoZIhvcNAQELBQAwWjELMAkGA1UEBhMCREUx
EDAOBgNVBAgMB0JhdmFyaWExDDAKBgNVBAoMA0JNVzEPMA0GA1UECwwGQ2FyIElU
MRowGAYDVQQDDBFJbnRlcm1lZGlhdGUgQ0EgMTAeFw0xNzAzMjcxMzIyMTZaFw00
NDA4MTIxMzIyMTZaMFcxCzAJBgNVBAYTAkRFMRAwDgYDVQQIDAdCYXZhcmlhMQww
CgYDVQQKDANCTVcxDzANBgNVBAsMBkNhciBJVDEXMBUGA1UEAwwOVGVzdGluZyBD
ZXJ0IDEwggEiMA0GCSqGSIb3DQEBAQUAA4IBDwAwggEKAoIBAQCtOdoHqXcXuqFY
9Q5wbik+0+Hq+Jmo6Iz+x/1QxGCGNadEN2d4VymBAWWwFVUxH+fLePUP3csIw4SQ
oOu3cqTSJuLMZ2sOy1fTY7Wnn21Z9eWtHP8s8Oj5pjDQIVCJWioshM4HQtsCNSmK
Swr5a8DkZky3onarbHlRaim26ayPbgLdUKDbcnS+nWp4NdzmOKHmSTZpOma9EU9y
FdmrhMUgfbm3zTFlDjlp6YGr6QQT/fivY9F8pIJFMthMK71rOJAwege7Wti+ockc
WEToI953MvXyzbOcDhfN7B1Uq6Nu0Z4Fke+sdShS2YF4cMLVnaWuhZeXWTLnauyg
+aAQ7/rpAgMBAAGjgbswgbgwCQYDVR0TBAIwADARBglghkgBhvhCAQEEBAMCB4Aw
MwYJYIZIAYb4QgENBCYWJE9wZW5TU0wgR2VuZXJhdGVkIENsaWVudCBDZXJ0aWZp
Y2F0ZTAdBgNVHQ4EFgQUCFS1qPvJTLsjqJ1NXCTHFea8DNUwHwYDVR0jBBgwFoAU
x/x9S7tKsrWvweurBJwXWXmx3zQwDgYDVR0PAQH/BAQDAgXgMBMGA1UdJQQMMAoG
CCsGAQUFBwMCMA0GCSqGSIb3DQEBCwUAA4IBAQAZeDBHKIBZZQlc7hLEHtNtC8/X
vS4k88/T4Iv2sULeDCAFVKoWCP/GeC8uoYr/ptQRJHqkSkisSHqLA1hMFOQd8au7
9Km6AXRAAcb4Klivqs1yUHGN3q4AachWfIdms0dI9BykGBKsGLY1nDPXngi6HPv/
/bdTRdw8CqcHJfMWyII/I62Fk6T2jC75o5z8r3RppUgrA0rq0mETM7VRHjkbCyfH
8jAL1IW8dAKVN/NuDZrQy89E9D21QWMp24NLchfy/rL/JEm3dXxcZ2ET7pSePx6L
6XB4roQHaZh9x/atS2mO6fgzI36zpIWtquP3V3xzbXCXiNtYlyK9mTskWDsE
-----END CERTIFICATE-----
