Certificate:
    Data:
        Version: 3 (0x2)
        Serial Number: 4099 (0x1003)
    Signature Algorithm: sha256WithRSAEncryption
        Issuer: C=DE, ST=Bavaria, L=Munich, O=BMW, OU=Car IT, CN=Root CA 1
        Validity
            Not Before: Mar 27 19:00:38 2017 GMT
            Not After : Aug 12 19:00:38 2044 GMT
        Subject: C=DE, ST=Bavaria, O=BMW, OU=Car IT, CN=Intemediate CA 1
        Subject Public Key Info:
            Public Key Algorithm: rsaEncryption
                Public-Key: (2048 bit)
                Modulus:
                    00:ef:2a:c0:41:7e:ca:24:04:9f:ea:dd:c4:01:0f:
                    fc:87:56:10:07:1c:bb:80:e2:f5:15:15:98:f9:dc:
                    8a:db:07:41:5b:87:8d:15:25:cf:02:7a:8e:37:99:
                    eb:be:31:a1:7c:80:6d:74:0d:41:f0:6d:cc:94:dc:
                    1c:f8:0e:6d:30:0c:8a:97:69:27:07:8d:d1:13:1e:
                    17:62:77:8f:4d:de:b4:35:87:8e:93:50:7a:97:31:
                    b8:52:9c:7c:2a:fc:08:72:45:63:2e:ed:e5:6d:b3:
                    80:47:3d:52:c8:f0:86:ac:19:bd:12:c4:fc:dc:2d:
                    49:f1:8d:52:cc:bb:d6:1e:64:09:18:6c:7d:2c:25:
                    a9:e7:61:aa:68:33:7d:8b:40:0f:dc:21:d5:be:e8:
                    ff:30:a1:f7:61:fe:5b:ec:e5:c2:f2:ef:a7:d1:67:
                    d9:b6:85:7e:11:10:a5:8d:f6:e2:94:3b:e7:73:eb:
                    a2:79:2e:57:12:b2:26:83:ed:28:2f:f0:8f:f4:a8:
                    4c:ce:ff:d0:30:33:1e:01:34:fb:ee:0d:99:fc:33:
                    5d:9d:a3:55:26:58:23:24:10:08:8d:22:60:58:28:
                    6c:00:bf:b0:71:0a:6e:36:4b:d2:17:5e:42:6d:d2:
                    52:a7:16:67:8b:47:19:4e:74:01:3f:05:47:f8:29:
                    a5:91
                Exponent: 65537 (0x10001)
        X509v3 extensions:
            X509v3 Subject Key Identifier: 
                10:BB:7A:A1:82:16:CF:CE:22:FF:EB:99:E1:B7:9D:D3:0D:7D:32:82
            X509v3 Authority Key Identifier: 
                keyid:D3:14:A3:86:B3:6F:70:70:94:1A:26:D6:20:38:D0:11:CF:A7:8A:B2

            X509v3 Basic Constraints: critical
                CA:TRUE
            X509v3 Key Usage: critical
                Digital Signature, Certificate Sign, CRL Sign
    Signature Algorithm: sha256WithRSAEncryption
         6c:10:1f:91:a5:35:13:c8:12:16:43:81:e4:83:6e:59:2b:16:
         c8:74:39:ad:d1:48:ae:da:30:53:47:1e:24:17:6c:d1:43:fc:
         4a:9c:e9:6c:e3:d4:11:26:cf:54:d7:95:49:f0:5d:34:d1:79:
         4c:df:8b:3a:0c:69:74:71:d5:23:75:06:3d:2c:90:8a:27:6e:
         0b:96:d4:06:bc:43:20:08:65:5c:67:3a:86:f0:82:ab:ce:e0:
         d3:7e:ef:82:2f:06:ec:78:40:8e:d5:c1:8d:56:45:da:f1:9b:
         19:12:df:0a:b4:8b:42:4b:31:19:72:d2:cd:39:71:78:b0:81:
         50:af:60:c9:cc:67:30:03:eb:a6:7c:ae:9d:27:d1:39:49:e1:
         e4:c7:65:47:62:35:71:ea:26:af:28:54:0d:48:3c:bc:12:c4:
         bb:f2:39:4a:01:93:8d:aa:80:b2:fc:f3:03:39:aa:8a:6c:5f:
         66:ee:b3:6d:e1:52:fe:05:e7:09:1d:bc:c2:9b:18:d3:1d:55:
         a0:7d:e3:78:9c:98:2a:a3:4e:e0:80:39:47:8e:6b:28:55:85:
         e5:d8:48:e5:ba:e4:5e:64:b6:ea:57:10:3f:af:b3:5c:28:34:
         fb:fe:02:72:ad:d9:46:38:6c:18:a7:39:21:a8:0b:28:7e:07:
         07:67:03:e8:70:1a:b5:37:0b:7d:1d:79:80:d5:64:b0:fb:e4:
         7c:2a:62:74:81:fe:3b:6d:1c:4f:d6:1b:ff:06:d4:16:ba:f6:
         62:23:f1:bf:29:56:e1:e4:ae:27:1d:1e:a8:3e:e3:89:e4:95:
         f1:d7:ae:2f:00:83:f1:77:9b:67:a9:01:90:1e:8f:ba:95:33:
         48:b1:be:9e:b9:e0:d3:09:b6:bf:37:16:c7:58:8f:ee:af:a3:
         09:30:4b:5f:64:6a:ee:2d:f5:3b:5c:bf:7b:d2:67:16:31:dc:
         14:87:f3:2a:49:ce:df:7c:40:36:3e:3e:9a:2e:77:df:9a:fa:
         b1:74:c1:21:ba:14:ee:4c:c8:22:b3:4e:e1:ba:50:27:69:a0:
         42:ad:bd:71:88:61:58:0b:fb:46:70:9f:b9:e7:c9:f2:71:2e:
         17:88:58:d4:d0:db:21:d7:3c:ee:6d:3b:a6:e7:5a:f2:f9:f4:
         b3:13:ab:25:89:48:ff:81:f5:83:a4:4b:ab:ef:91:44:a0:6f:
         60:62:14:65:de:b2:37:46:3d:f8:6a:5d:83:3f:99:e8:ec:9d:
         8a:0a:ba:b9:f6:52:b7:58:8f:af:07:26:0c:b9:16:4b:41:40:
         6d:d7:0f:ab:d6:a1:1a:92:f4:88:a2:29:e3:ae:64:ba:d7:aa:
         9f:90:e0:4f:1c:91:24:bd
-----BEGIN CERTIFICATE-----
MIIEmzCCAoOgAwIBAgICEAMwDQYJKoZIhvcNAQELBQAwYzELMAkGA1UEBhMCREUx
EDAOBgNVBAgMB0JhdmFyaWExDzANBgNVBAcMBk11bmljaDEMMAoGA1UECgwDQk1X
MQ8wDQYDVQQLDAZDYXIgSVQxEjAQBgNVBAMMCVJvb3QgQ0EgMTAeFw0xNzAzMjcx
OTAwMzhaFw00NDA4MTIxOTAwMzhaMFkxCzAJBgNVBAYTAkRFMRAwDgYDVQQIDAdC
YXZhcmlhMQwwCgYDVQQKDANCTVcxDzANBgNVBAsMBkNhciBJVDEZMBcGA1UEAwwQ
SW50ZW1lZGlhdGUgQ0EgMTCCASIwDQYJKoZIhvcNAQEBBQADggEPADCCAQoCggEB
AO8qwEF+yiQEn+rdxAEP/IdWEAccu4Di9RUVmPncitsHQVuHjRUlzwJ6jjeZ674x
oXyAbXQNQfBtzJTcHPgObTAMipdpJweN0RMeF2J3j03etDWHjpNQepcxuFKcfCr8
CHJFYy7t5W2zgEc9UsjwhqwZvRLE/NwtSfGNUsy71h5kCRhsfSwlqedhqmgzfYtA
D9wh1b7o/zCh92H+W+zlwvLvp9Fn2baFfhEQpY324pQ753PronkuVxKyJoPtKC/w
j/SoTM7/0DAzHgE0++4NmfwzXZ2jVSZYIyQQCI0iYFgobAC/sHEKbjZL0hdeQm3S
UqcWZ4tHGU50AT8FR/gppZECAwEAAaNjMGEwHQYDVR0OBBYEFBC7eqGCFs/OIv/r
meG3ndMNfTKCMB8GA1UdIwQYMBaAFNMUo4azb3BwlBom1iA40BHPp4qyMA8GA1Ud
EwEB/wQFMAMBAf8wDgYDVR0PAQH/BAQDAgGGMA0GCSqGSIb3DQEBCwUAA4ICAQBs
EB+RpTUTyBIWQ4Hkg25ZKxbIdDmt0Uiu2jBTRx4kF2zRQ/xKnOls49QRJs9U15VJ
8F000XlM34s6DGl0cdUjdQY9LJCKJ24LltQGvEMgCGVcZzqG8IKrzuDTfu+CLwbs
eECO1cGNVkXa8ZsZEt8KtItCSzEZctLNOXF4sIFQr2DJzGcwA+umfK6dJ9E5SeHk
x2VHYjVx6iavKFQNSDy8EsS78jlKAZONqoCy/PMDOaqKbF9m7rNt4VL+BecJHbzC
mxjTHVWgfeN4nJgqo07ggDlHjmsoVYXl2EjluuReZLbqVxA/r7NcKDT7/gJyrdlG
OGwYpzkhqAsofgcHZwPocBq1Nwt9HXmA1WSw++R8KmJ0gf47bRxP1hv/BtQWuvZi
I/G/KVbh5K4nHR6oPuOJ5JXx164vAIPxd5tnqQGQHo+6lTNIsb6eueDTCba/NxbH
WI/ur6MJMEtfZGruLfU7XL970mcWMdwUh/MqSc7ffEA2Pj6aLnffmvqxdMEhuhTu
TMgis07hulAnaaBCrb1xiGFYC/tGcJ+558nycS4XiFjU0Nsh1zzubTum51ry+fSz
E6sliUj/gfWDpEur75FEoG9gYhRl3rI3Rj34al2DP5no7J2KCrq59lK3WI+vByYM
uRZLQUBt1w+r1qEakvSIoinjrmS616qfkOBPHJEkvQ==
-----END CERTIFICATE-----
