Certificate:
    Data:
        Version: 3 (0x2)
        Serial Number: 4096 (0x1000)
    Signature Algorithm: sha256WithRSAEncryption
        Issuer: C=DE, ST=Bavaria, L=Munich, O=BMW, OU=Car IT, CN=Root CA 1
        Validity
            Not Before: Mar 27 12:47:39 2017 GMT
            Not After : Aug 12 12:47:39 2044 GMT
        Subject: C=DE, ST=Bavaria, O=BMW, OU=Car IT, CN=Intemediate CA 1
        Subject Public Key Info:
            Public Key Algorithm: rsaEncryption
                Public-Key: (2048 bit)
                Modulus:
                    00:ef:2a:c0:41:7e:ca:24:04:9f:ea:dd:c4:01:0f:
                    fc:87:56:10:07:1c:bb:80:e2:f5:15:15:98:f9:dc:
                    8a:db:07:41:5b:87:8d:15:25:cf:02:7a:8e:37:99:
                    eb:be:31:a1:7c:80:6d:74:0d:41:f0:6d:cc:94:dc:
                    1c:f8:0e:6d:30:0c:8a:97:69:27:07:8d:d1:13:1e:
                    17:62:77:8f:4d:de:b4:35:87:8e:93:50:7a:97:31:
                    b8:52:9c:7c:2a:fc:08:72:45:63:2e:ed:e5:6d:b3:
                    80:47:3d:52:c8:f0:86:ac:19:bd:12:c4:fc:dc:2d:
                    49:f1:8d:52:cc:bb:d6:1e:64:09:18:6c:7d:2c:25:
                    a9:e7:61:aa:68:33:7d:8b:40:0f:dc:21:d5:be:e8:
                    ff:30:a1:f7:61:fe:5b:ec:e5:c2:f2:ef:a7:d1:67:
                    d9:b6:85:7e:11:10:a5:8d:f6:e2:94:3b:e7:73:eb:
                    a2:79:2e:57:12:b2:26:83:ed:28:2f:f0:8f:f4:a8:
                    4c:ce:ff:d0:30:33:1e:01:34:fb:ee:0d:99:fc:33:
                    5d:9d:a3:55:26:58:23:24:10:08:8d:22:60:58:28:
                    6c:00:bf:b0:71:0a:6e:36:4b:d2:17:5e:42:6d:d2:
                    52:a7:16:67:8b:47:19:4e:74:01:3f:05:47:f8:29:
                    a5:91
                Exponent: 65537 (0x10001)
        X509v3 extensions:
            X509v3 Subject Key Identifier: 
                10:BB:7A:A1:82:16:CF:CE:22:FF:EB:99:E1:B7:9D:D3:0D:7D:32:82
            X509v3 Authority Key Identifier: 
                keyid:D3:14:A3:86:B3:6F:70:70:94:1A:26:D6:20:38:D0:11:CF:A7:8A:B2

            X509v3 Basic Constraints: critical
                CA:TRUE, pathlen:0
            X509v3 Key Usage: critical
                Digital Signature, Certificate Sign, CRL Sign
    Signature Algorithm: sha256WithRSAEncryption
         19:ed:02:8c:3e:49:8f:dd:e0:5e:35:57:1e:c0:42:4e:ec:e9:
         f9:1b:8c:62:27:da:6b:18:c0:9e:70:7a:71:42:f9:07:a2:bc:
         d2:0a:45:0b:ea:50:84:f0:99:8c:a8:67:f6:06:50:39:bc:f9:
         4c:e8:71:dd:3b:87:ca:73:aa:9a:a5:e5:04:00:8b:bf:71:06:
         35:f7:89:d8:c0:b1:5f:14:a6:e4:d1:75:b8:a0:77:0f:19:17:
         27:58:c6:5a:13:17:4f:c4:6c:8d:53:f8:a2:b5:37:6f:3f:09:
         45:de:e0:73:0c:7e:15:f3:6d:b2:52:0b:27:06:7f:de:f0:2b:
         32:16:d8:c2:6e:3f:b3:9e:d5:f0:34:9c:b5:f7:8d:d2:96:a7:
         1a:7e:a7:f0:16:5a:90:a4:45:d9:93:5b:cc:21:35:b5:1c:ff:
         09:6f:e1:86:a1:93:93:d1:2a:c6:6d:ed:de:89:6a:14:90:31:
         57:f4:dc:41:73:8e:d9:2d:ad:d5:8a:31:3b:74:14:79:89:e4:
         aa:fe:f2:8f:56:d2:eb:21:bc:d5:66:2a:4c:ed:9c:27:4a:69:
         cd:0f:7e:39:9e:30:26:96:dc:5f:97:0e:3f:0b:52:c2:81:0f:
         38:0f:d4:88:1e:bb:46:87:01:42:44:73:25:5b:7b:bb:b6:c8:
         b6:83:ad:55:05:19:8f:f0:eb:94:1a:a8:7a:b8:e9:4b:39:23:
         86:8e:68:fe:85:c2:a5:e7:66:12:82:70:d0:ea:63:00:bc:5f:
         0c:cf:e3:42:07:c1:b4:49:f1:10:6e:28:df:71:a4:ec:6c:54:
         61:3c:75:34:78:28:b9:3d:fb:20:31:38:7a:ae:d2:46:42:a3:
         4f:01:71:63:91:39:d3:0c:b3:ff:83:54:38:b4:22:34:9e:2f:
         e7:46:38:79:ca:b6:cf:98:9c:42:3e:60:18:f6:47:15:2f:dd:
         45:92:cc:61:97:fe:b7:02:57:54:01:27:6d:7e:88:0c:67:fc:
         35:6d:0a:93:16:48:e3:93:59:65:61:c0:86:bb:c4:46:2b:66:
         4f:b2:91:19:e7:9b:52:72:66:cb:f1:7d:d0:23:d4:d9:47:27:
         a5:b5:86:1f:1b:fc:a4:f0:2b:27:e2:a9:34:25:3b:ae:b6:a5:
         97:08:d7:e3:f8:cc:1c:23:9a:97:46:92:41:68:87:86:25:d7:
         ad:fb:86:0c:6e:b6:63:4d:6e:be:02:3b:bc:6b:c1:37:d6:16:
         ef:0f:51:24:dc:c5:63:ef:17:47:22:a9:f3:ea:41:31:7e:57:
         09:ff:60:aa:35:79:4f:cb:42:e5:73:2e:2e:cc:8d:56:93:51:
         70:46:4d:87:3d:f7:b0:b5
-----BEGIN CERTIFICATE-----
MIIEnjCCAoagAwIBAgICEAAwDQYJKoZIhvcNAQELBQAwYzELMAkGA1UEBhMCREUx
EDAOBgNVBAgMB0JhdmFyaWExDzANBgNVBAcMBk11bmljaDEMMAoGA1UECgwDQk1X
MQ8wDQYDVQQLDAZDYXIgSVQxEjAQBgNVBAMMCVJvb3QgQ0EgMTAeFw0xNzAzMjcx
MjQ3MzlaFw00NDA4MTIxMjQ3MzlaMFkxCzAJBgNVBAYTAkRFMRAwDgYDVQQIDAdC
YXZhcmlhMQwwCgYDVQQKDANCTVcxDzANBgNVBAsMBkNhciBJVDEZMBcGA1UEAwwQ
SW50ZW1lZGlhdGUgQ0EgMTCCASIwDQYJKoZIhvcNAQEBBQADggEPADCCAQoCggEB
AO8qwEF+yiQEn+rdxAEP/IdWEAccu4Di9RUVmPncitsHQVuHjRUlzwJ6jjeZ674x
oXyAbXQNQfBtzJTcHPgObTAMipdpJweN0RMeF2J3j03etDWHjpNQepcxuFKcfCr8
CHJFYy7t5W2zgEc9UsjwhqwZvRLE/NwtSfGNUsy71h5kCRhsfSwlqedhqmgzfYtA
D9wh1b7o/zCh92H+W+zlwvLvp9Fn2baFfhEQpY324pQ753PronkuVxKyJoPtKC/w
j/SoTM7/0DAzHgE0++4NmfwzXZ2jVSZYIyQQCI0iYFgobAC/sHEKbjZL0hdeQm3S
UqcWZ4tHGU50AT8FR/gppZECAwEAAaNmMGQwHQYDVR0OBBYEFBC7eqGCFs/OIv/r
meG3ndMNfTKCMB8GA1UdIwQYMBaAFNMUo4azb3BwlBom1iA40BHPp4qyMBIGA1Ud
EwEB/wQIMAYBAf8CAQAwDgYDVR0PAQH/BAQDAgGGMA0GCSqGSIb3DQEBCwUAA4IC
AQAZ7QKMPkmP3eBeNVcewEJO7On5G4xiJ9prGMCecHpxQvkHorzSCkUL6lCE8JmM
qGf2BlA5vPlM6HHdO4fKc6qapeUEAIu/cQY194nYwLFfFKbk0XW4oHcPGRcnWMZa
ExdPxGyNU/iitTdvPwlF3uBzDH4V822yUgsnBn/e8CsyFtjCbj+zntXwNJy1943S
lqcafqfwFlqQpEXZk1vMITW1HP8Jb+GGoZOT0SrGbe3eiWoUkDFX9NxBc47ZLa3V
ijE7dBR5ieSq/vKPVtLrIbzVZipM7ZwnSmnND345njAmltxflw4/C1LCgQ84D9SI
HrtGhwFCRHMlW3u7tsi2g61VBRmP8OuUGqh6uOlLOSOGjmj+hcKl52YSgnDQ6mMA
vF8Mz+NCB8G0SfEQbijfcaTsbFRhPHU0eCi5PfsgMTh6rtJGQqNPAXFjkTnTDLP/
g1Q4tCI0ni/nRjh5yrbPmJxCPmAY9kcVL91Fksxhl/63AldUASdtfogMZ/w1bQqT
Fkjjk1llYcCGu8RGK2ZPspEZ55tScmbL8X3QI9TZRyeltYYfG/yk8Csn4qk0JTuu
tqWXCNfj+MwcI5qXRpJBaIeGJdet+4YMbrZjTW6+Aju8a8E31hbvD1Ek3MVj7xdH
Iqnz6kExflcJ/2CqNXlPy0Llcy4uzI1Wk1FwRk2HPfewtQ==
-----END CERTIFICATE-----
