Certificate:
    Data:
        Version: 3 (0x2)
        Serial Number: 4100 (0x1004)
    Signature Algorithm: sha256WithRSAEncryption
        Issuer: C=DE, ST=Bavaria, L=Munich, O=BMW, OU=Car IT, CN=Root CA 1
        Validity
            Not Before: Apr  1 12:00:00 1950 GMT
            Not After : May  1 12:00:00 1950 GMT
        Subject: C=DE, ST=Bavaria, O=BMW, OU=Car IT, CN=Expired Certificate
        Subject Public Key Info:
            Public Key Algorithm: rsaEncryption
                Public-Key: (2048 bit)
                Modulus:
                    00:b6:f5:8c:24:13:d8:94:22:a3:d1:d6:c2:7d:18:
                    7c:11:9c:d4:48:92:dd:7f:70:39:6c:34:92:86:58:
                    7a:db:71:cc:d5:f2:17:ee:b6:fa:41:fb:8e:2d:6d:
                    da:35:f0:cc:b2:f2:81:75:f6:62:46:89:df:4e:e4:
                    3c:21:42:54:ff:ee:f5:27:d6:70:15:ca:7c:3e:32:
                    3f:ab:6c:f2:06:9f:c0:21:70:4b:30:c2:ff:ea:b6:
                    cf:58:24:61:0d:5a:1c:cb:fc:fe:f6:b1:00:84:12:
                    9f:dc:65:0e:4a:3d:c5:89:e3:ab:28:6d:c9:8e:8e:
                    18:7f:ef:90:28:cc:17:98:cc:63:c8:e8:a5:4d:23:
                    a3:67:95:03:3f:6d:8b:a5:e3:87:1b:8b:74:ea:8e:
                    97:27:90:1d:4a:48:25:87:2f:c6:59:44:37:ce:e1:
                    3f:53:76:06:b4:68:81:82:f4:33:f5:39:70:34:95:
                    76:82:b8:3b:f3:88:f7:50:f6:43:90:c0:ca:98:2d:
                    9a:08:fa:97:12:2c:bf:20:14:fd:13:9c:9f:c9:5b:
                    8a:a4:0e:8d:b5:6e:ba:b6:0e:fc:6d:53:a5:3a:18:
                    50:c9:ed:c9:9b:81:75:80:7a:24:21:35:10:fc:be:
                    ba:78:5a:90:58:a7:d2:0e:fd:85:2a:8d:13:64:19:
                    78:4d
                Exponent: 65537 (0x10001)
        X509v3 extensions:
            X509v3 Basic Constraints: 
                CA:FALSE
            Netscape Cert Type: 
                SSL Client
            Netscape Comment: 
                OpenSSL Generated Client Certificate
            X509v3 Subject Key Identifier: 
                12:1D:95:A7:A4:BA:83:E9:FD:B6:EF:36:7E:7B:2C:15:E3:86:B8:8D
            X509v3 Authority Key Identifier: 
                keyid:D3:14:A3:86:B3:6F:70:70:94:1A:26:D6:20:38:D0:11:CF:A7:8A:B2

            X509v3 Key Usage: critical
                Digital Signature, Non Repudiation, Key Encipherment
            X509v3 Extended Key Usage: 
                TLS Web Client Authentication
    Signature Algorithm: sha256WithRSAEncryption
         8e:83:e3:e5:fd:f3:03:e8:0b:23:40:02:5b:c7:c6:fa:7b:30:
         12:04:dd:3e:ec:56:ce:6f:58:64:c0:d4:15:78:d4:0b:1d:6b:
         b4:d2:61:3b:60:da:eb:ac:10:c5:02:f1:7d:94:b6:e8:0f:02:
         01:84:df:99:73:e2:a3:c3:6d:05:47:7b:99:7d:d5:bd:e6:b0:
         af:66:57:64:98:fc:84:98:f0:9b:dc:4c:dc:68:f4:65:c1:cb:
         60:a3:1c:26:31:a5:e1:2e:90:6e:d5:d8:62:f5:81:c6:c2:41:
         5d:2a:fa:c6:f3:ee:a4:e6:27:f0:be:25:18:d9:87:e2:06:85:
         42:01:5f:db:00:8e:a7:81:fb:13:e2:b8:9c:41:6f:ee:3d:23:
         9d:04:2b:9b:dc:bc:2e:91:7f:f4:a2:b7:fe:e0:2c:e0:c1:ee:
         25:2a:a9:62:13:f1:5d:dc:09:3b:93:f8:ea:64:9c:19:5e:8d:
         8b:bd:5f:11:3c:6e:58:c1:e7:5a:48:0a:24:5e:75:ec:32:5c:
         3f:80:f0:20:b8:80:e8:0f:ef:55:40:55:76:0a:78:79:0b:b3:
         bc:7a:60:67:b7:ea:13:8a:16:5e:04:9c:fa:9c:b6:90:0c:9c:
         d8:ca:29:79:3d:ae:ae:bd:c8:1b:27:30:32:e2:7b:d3:c4:73:
         1c:8c:77:aa:8f:07:a0:3e:42:02:ad:e9:66:98:4e:ea:ef:48:
         43:50:1a:6b:74:a8:14:de:b8:d0:46:18:4e:44:de:56:13:ce:
         1b:03:7e:47:3b:68:c4:08:1c:bc:3c:9e:57:13:25:a4:54:61:
         a6:45:39:1a:68:c5:1a:4d:fc:29:3d:a2:aa:48:78:9c:5a:d0:
         27:d9:5f:50:8a:f1:42:31:22:28:d9:02:3f:9c:9c:48:80:a0:
         d0:b9:87:f3:b5:9b:4a:55:5c:d5:d2:e5:72:17:ee:12:42:bf:
         4d:a7:19:35:5c:b7:14:d9:d2:44:f9:88:b8:80:7e:1c:60:5b:
         86:d8:86:70:2b:69:55:cf:63:3d:40:66:42:bd:9d:aa:9f:47:
         00:1b:ac:35:b7:39:ab:3e:46:e4:48:94:4f:f5:78:96:90:94:
         e5:0a:e4:ee:d4:18:f8:69:da:5e:b6:44:db:a9:f4:f0:73:6d:
         77:cb:e0:00:82:9b:21:2e:30:8a:eb:d8:84:48:6e:34:5a:35:
         fa:de:a7:2c:f3:ae:12:c0:69:56:c9:b8:10:25:41:48:61:c4:
         26:ec:2a:01:e2:74:dc:c4:5c:e4:65:db:9c:f7:bf:71:b2:4b:
         af:c7:67:89:b0:7f:e8:35:a8:d7:44:bf:64:a6:d8:b9:cd:b2:
         24:29:5a:ae:51:fa:e2:15
-----BEGIN CERTIFICATE-----
MIIE+zCCAuOgAwIBAgICEAQwDQYJKoZIhvcNAQELBQAwYzELMAkGA1UEBhMCREUx
EDAOBgNVBAgMB0JhdmFyaWExDzANBgNVBAcMBk11bmljaDEMMAoGA1UECgwDQk1X
MQ8wDQYDVQQLDAZDYXIgSVQxEjAQBgNVBAMMCVJvb3QgQ0EgMTAiGA8xOTUwMDQw
MTEyMDAwMFoYDzE5NTAwNTAxMTIwMDAwWjBcMQswCQYDVQQGEwJERTEQMA4GA1UE
CAwHQmF2YXJpYTEMMAoGA1UECgwDQk1XMQ8wDQYDVQQLDAZDYXIgSVQxHDAaBgNV
BAMME0V4cGlyZWQgQ2VydGlmaWNhdGUwggEiMA0GCSqGSIb3DQEBAQUAA4IBDwAw
ggEKAoIBAQC29YwkE9iUIqPR1sJ9GHwRnNRIkt1/cDlsNJKGWHrbcczV8hfutvpB
+44tbdo18Myy8oF19mJGid9O5DwhQlT/7vUn1nAVynw+Mj+rbPIGn8AhcEswwv/q
ts9YJGENWhzL/P72sQCEEp/cZQ5KPcWJ46sobcmOjhh/75AozBeYzGPI6KVNI6Nn
lQM/bYul44cbi3TqjpcnkB1KSCWHL8ZZRDfO4T9Tdga0aIGC9DP1OXA0lXaCuDvz
iPdQ9kOQwMqYLZoI+pcSLL8gFP0TnJ/JW4qkDo21brq2DvxtU6U6GFDJ7cmbgXWA
eiQhNRD8vrp4WpBYp9IO/YUqjRNkGXhNAgMBAAGjgbswgbgwCQYDVR0TBAIwADAR
BglghkgBhvhCAQEEBAMCB4AwMwYJYIZIAYb4QgENBCYWJE9wZW5TU0wgR2VuZXJh
dGVkIENsaWVudCBDZXJ0aWZpY2F0ZTAdBgNVHQ4EFgQUEh2Vp6S6g+n9tu82fnss
FeOGuI0wHwYDVR0jBBgwFoAU0xSjhrNvcHCUGibWIDjQEc+nirIwDgYDVR0PAQH/
BAQDAgXgMBMGA1UdJQQMMAoGCCsGAQUFBwMCMA0GCSqGSIb3DQEBCwUAA4ICAQCO
g+Pl/fMD6AsjQAJbx8b6ezASBN0+7FbOb1hkwNQVeNQLHWu00mE7YNrrrBDFAvF9
lLboDwIBhN+Zc+Kjw20FR3uZfdW95rCvZldkmPyEmPCb3EzcaPRlwctgoxwmMaXh
LpBu1dhi9YHGwkFdKvrG8+6k5ifwviUY2YfiBoVCAV/bAI6ngfsT4ricQW/uPSOd
BCub3LwukX/0orf+4Czgwe4lKqliE/Fd3Ak7k/jqZJwZXo2LvV8RPG5YwedaSAok
XnXsMlw/gPAguIDoD+9VQFV2Cnh5C7O8emBnt+oTihZeBJz6nLaQDJzYyil5Pa6u
vcgbJzAy4nvTxHMcjHeqjwegPkICrelmmE7q70hDUBprdKgU3rjQRhhORN5WE84b
A35HO2jECBy8PJ5XEyWkVGGmRTkaaMUaTfwpPaKqSHicWtAn2V9QivFCMSIo2QI/
nJxIgKDQuYfztZtKVVzV0uVyF+4SQr9Npxk1XLcU2dJE+Yi4gH4cYFuG2IZwK2lV
z2M9QGZCvZ2qn0cAG6w1tzmrPkbkSJRP9XiWkJTlCuTu1Bj4adpetkTbqfTwc213
y+AAgpshLjCK69iESG40WjX63qcs864SwGlWybgQJUFIYcQm7CoB4nTcxFzkZduc
979xskuvx2eJsH/oNajXRL9kpti5zbIkKVquUfriFQ==
-----END CERTIFICATE-----
